(dp1
S'files'
p2
(dp3
S'env_lib_python2_7_site-packages_werkzeug_routing'
p4
(dp5
S'index'
p6
(dp7
S'html_filename'
p8
S'env_lib_python2_7_site-packages_werkzeug_routing.html'
p9
sS'name'
p10
S'env/lib/python2.7/site-packages/werkzeug/routing'
p11
sS'nums'
p12
ccopy_reg
_reconstructor
p13
(ccoverage.results
Numbers
p14
c__builtin__
object
p15
NtRp16
(dp17
S'n_files'
p18
I1
sS'n_branches'
p19
I0
sS'n_statements'
p20
I580
sS'n_excluded'
p21
I0
sS'n_partial_branches'
p22
I0
sS'n_missing'
p23
I359
sS'n_missing_branches'
p24
I0
sbssS'hash'
p25
S' \xc6s\xd9\xcb\x07w6\xaa\x04:\x90\xc2\x16\xb4Y'
p26
ssS'app_users_forms'
p27
(dp28
g6
(dp29
g8
S'app_users_forms.html'
p30
sg10
S'app/users/forms'
p31
sg12
g13
(g14
g15
NtRp32
(dp33
g18
I1
sg19
I0
sg20
I11
sg21
I0
sg22
I0
sg23
I0
sg24
I0
sbssg25
S'\xc6O\tm\x04\xf6@\x11\xae\xe7\xf2\x9e\xfd,\xc7\x16'
p34
ssS'env_lib_python2_7_site-packages_sqlalchemy_processors'
p35
(dp36
g6
(dp37
g8
S'env_lib_python2_7_site-packages_sqlalchemy_processors.html'
p38
sg10
S'env/lib/python2.7/site-packages/sqlalchemy/processors'
p39
sg12
g13
(g14
g15
NtRp40
(dp41
g18
I1
sg19
I0
sg20
I83
sg21
I0
sg22
I0
sg23
I68
sg24
I0
sbssg25
S'gn\xc1F\xea \xe1\xca\x81\x05\x04\xa7y\xb7\x97\xe6'
p42
ssS'env_lib_python2_7_site-packages_sqlalchemy_orm_properties'
p43
(dp44
g6
(dp45
g8
S'env_lib_python2_7_site-packages_sqlalchemy_orm_properties.html'
p46
sg10
S'env/lib/python2.7/site-packages/sqlalchemy/orm/properties'
p47
sg12
g13
(g14
g15
NtRp48
(dp49
g18
I1
sg19
I0
sg20
I81
sg21
I0
sg22
I0
sg23
I33
sg24
I0
sbssg25
S'\xc2Q-\xe6\x14h\x8c\xe34\xe8\x05\xb7O:\xdd\xd0'
p50
ssS'env_lib_python2_7_site-packages_jinja2_environment'
p51
(dp52
g6
(dp53
g8
S'env_lib_python2_7_site-packages_jinja2_environment.html'
p54
sg10
S'env/lib/python2.7/site-packages/jinja2/environment'
p55
sg12
g13
(g14
g15
NtRp56
(dp57
g18
I1
sg19
I0
sg20
I488
sg21
I0
sg22
I0
sg23
I391
sg24
I0
sbssg25
S'"\xb09\xba\xfdX\xb0\x17\xe1zE\xf0Xk\x9f\x0e'
p58
ssS'app_views'
p59
(dp60
g6
(dp61
g8
S'app_views.html'
p62
sg10
S'app/views'
p63
sg12
g13
(g14
g15
NtRp64
(dp65
g18
I1
sg19
I0
sg20
I23
sg21
I0
sg22
I0
sg23
I12
sg24
I0
sbssg25
S'\x18[\x92\xbf\xb2\x9c\xad\xdc\r\xc7\xd4;\xe3\x0b\xad\xdc'
p66
ssS'env_lib_python2_7_site-packages_sqlalchemy_sql_naming'
p67
(dp68
g6
(dp69
g8
S'env_lib_python2_7_site-packages_sqlalchemy_sql_naming.html'
p70
sg10
S'env/lib/python2.7/site-packages/sqlalchemy/sql/naming'
p71
sg12
g13
(g14
g15
NtRp72
(dp73
g18
I1
sg19
I0
sg20
I77
sg21
I0
sg22
I0
sg23
I47
sg24
I0
sbssg25
S'\xf0\x8bj\x8e\xedW\xe7\xcazz1\xb8\xcd\xfd\x1eM'
p74
ssS'env_lib_python2_7_site-packages_flask_logging'
p75
(dp76
g6
(dp77
g8
S'env_lib_python2_7_site-packages_flask_logging.html'
p78
sg10
S'env/lib/python2.7/site-packages/flask/logging'
p79
sg12
g13
(g14
g15
NtRp80
(dp81
g18
I1
sg19
I0
sg20
I21
sg21
I0
sg22
I0
sg23
I1
sg24
I0
sbssg25
S'\x8e\xf62@ -\xe6\xd8A\x8e\xdd\x84"\xf1\xdc?'
p82
ssS'env_lib_python2_7_site-packages_sqlalchemy_orm_session'
p83
(dp84
g6
(dp85
g8
S'env_lib_python2_7_site-packages_sqlalchemy_orm_session.html'
p86
sg10
S'env/lib/python2.7/site-packages/sqlalchemy/orm/session'
p87
sg12
g13
(g14
g15
NtRp88
(dp89
g18
I1
sg19
I0
sg20
I753
sg21
I0
sg22
I0
sg23
I414
sg24
I0
sbssg25
S'#\xee@\t!H\x86z\xe6D\xbav(\xb8\x19 '
p90
ssS'env_lib_python2_7_site-packages_sqlalchemy_schema'
p91
(dp92
g6
(dp93
g8
S'env_lib_python2_7_site-packages_sqlalchemy_schema.html'
p94
sg10
S'env/lib/python2.7/site-packages/sqlalchemy/schema'
p95
sg12
g13
(g14
g15
NtRp96
(dp97
g18
I1
sg19
I0
sg20
I5
sg21
I0
sg22
I0
sg23
I0
sg24
I0
sbssg25
S'FY\xbc\xd89\xd1\xc5h{C1\xaa\xf6\x87\xbcK'
p98
ssS'env_lib_python2_7_site-packages_flask_json'
p99
(dp100
g6
(dp101
g8
S'env_lib_python2_7_site-packages_flask_json.html'
p102
sg10
S'env/lib/python2.7/site-packages/flask/json'
p103
sg12
g13
(g14
g15
NtRp104
(dp105
g18
I1
sg19
I0
sg20
I83
sg21
I0
sg22
I0
sg23
I54
sg24
I0
sbssg25
S'w\x0b\xb8|\x08A\x83\x9a\xa9n\x84z].,\xab'
p106
ssS'env_lib_python2_7_site-packages_flask_app'
p107
(dp108
g6
(dp109
g8
S'env_lib_python2_7_site-packages_flask_app.html'
p110
sg10
S'env/lib/python2.7/site-packages/flask/app'
p111
sg12
g13
(g14
g15
NtRp112
(dp113
g18
I1
sg19
I0
sg20
I528
sg21
I0
sg22
I0
sg23
I308
sg24
I0
sbssg25
S'=a\xee\xea\xe0]\xc4y\xc43&a\x0b\x1c\xb6I'
p114
ssS'env_lib_python2_7_site-packages_jinja2_runtime'
p115
(dp116
g6
(dp117
g8
S'env_lib_python2_7_site-packages_jinja2_runtime.html'
p118
sg10
S'env/lib/python2.7/site-packages/jinja2/runtime'
p119
sg12
g13
(g14
g15
NtRp120
(dp121
g18
I1
sg19
I0
sg20
I291
sg21
I0
sg22
I0
sg23
I190
sg24
I0
sbssg25
S'\x19\xf7c\x96\x17V&l+P\x98<Tu4\xa8'
p122
ssS'env_lib_python2_7_site-packages_wtforms_ext_csrf_form'
p123
(dp124
g6
(dp125
g8
S'env_lib_python2_7_site-packages_wtforms_ext_csrf_form.html'
p126
sg10
S'env/lib/python2.7/site-packages/wtforms/ext/csrf/form'
p127
sg12
g13
(g14
g15
NtRp128
(dp129
g18
I1
sg19
I0
sg20
I18
sg21
I0
sg22
I0
sg23
I8
sg24
I0
sbssg25
S'\x92\x0b\xd9\xc9\xae\xa2\x87\xfb\xd7\xaa\xaeJ\xcc_3a'
p130
ssS'env_lib_python2_7_site-packages_flask_debughelpers'
p131
(dp132
g6
(dp133
g8
S'env_lib_python2_7_site-packages_flask_debughelpers.html'
p134
sg10
S'env/lib/python2.7/site-packages/flask/debughelpers'
p135
sg12
g13
(g14
g15
NtRp136
(dp137
g18
I1
sg19
I0
sg20
I35
sg21
I0
sg22
I0
sg23
I25
sg24
I0
sbssg25
S'\xb1\x83\xab\xaa\xfbi\x87\xe1\x0515\x06\xb8\xe5\xcd\xa5'
p138
ssS'env_lib_python2_7_site-packages_wtforms_compat'
p139
(dp140
g6
(dp141
g8
S'env_lib_python2_7_site-packages_wtforms_compat.html'
p142
sg10
S'env/lib/python2.7/site-packages/wtforms/compat'
p143
sg12
g13
(g14
g15
NtRp144
(dp145
g18
I1
sg19
I0
sg20
I14
sg21
I0
sg22
I0
sg23
I5
sg24
I0
sbssg25
S']\xa2\x85\xc0\r\xc0\xb6\x8f\x92g\xeb\xff\xcc\\\xedm'
p146
ssS'env_lib_python2_7_site-packages_sqlalchemy_sql_annotation'
p147
(dp148
g6
(dp149
g8
S'env_lib_python2_7_site-packages_sqlalchemy_sql_annotation.html'
p150
sg10
S'env/lib/python2.7/site-packages/sqlalchemy/sql/annotation'
p151
sg12
g13
(g14
g15
NtRp152
(dp153
g18
I1
sg19
I0
sg20
I97
sg21
I0
sg22
I0
sg23
I26
sg24
I0
sbssg25
S'\xf3\xe5\x0c\xa5\xab5\xb5\x87E\xf9\xb9\x00*\xb7\xcf*'
p154
ssS'env_lib_python2_7_site-packages_sqlalchemy_engine___init__'
p155
(dp156
g6
(dp157
g8
S'env_lib_python2_7_site-packages_sqlalchemy_engine___init__.html'
p158
sg10
S'env/lib/python2.7/site-packages/sqlalchemy/engine/__init__'
p159
sg12
g13
(g14
g15
NtRp160
(dp161
g18
I1
sg19
I0
sg20
I19
sg21
I0
sg22
I0
sg23
I5
sg24
I0
sbssg25
S'/\xb7\x17y\\\xe8/\x15\x0e^`\xc8z.l]'
p162
ssS'env_lib_python2_7_site-packages_werkzeug_exceptions'
p163
(dp164
g6
(dp165
g8
S'env_lib_python2_7_site-packages_werkzeug_exceptions.html'
p166
sg10
S'env/lib/python2.7/site-packages/werkzeug/exceptions'
p167
sg12
g13
(g14
g15
NtRp168
(dp169
g18
I1
sg19
I0
sg20
I159
sg21
I2
sg22
I0
sg23
I32
sg24
I0
sbssg25
S"\xe2^\x8b\xcf\xd2\x12')K\x83\x8b\xc8\x868|{"
p170
ssS'env_lib_python2_7_site-packages_jinja2_bccache'
p171
(dp172
g6
(dp173
g8
S'env_lib_python2_7_site-packages_jinja2_bccache.html'
p174
sg10
S'env/lib/python2.7/site-packages/jinja2/bccache'
p175
sg12
g13
(g14
g15
NtRp176
(dp177
g18
I1
sg19
I0
sg20
I147
sg21
I0
sg22
I0
sg23
I104
sg24
I0
sbssg25
S'r\xee\xabK\x8f\x01\xb0\xfa\xa2rl\xe3)n]\xc4'
p178
ssS'env_lib_python2_7_site-packages_sqlalchemy_orm_sync'
p179
(dp180
g6
(dp181
g8
S'env_lib_python2_7_site-packages_sqlalchemy_orm_sync.html'
p182
sg10
S'env/lib/python2.7/site-packages/sqlalchemy/orm/sync'
p183
sg12
g13
(g14
g15
NtRp184
(dp185
g18
I1
sg19
I0
sg20
I56
sg21
I0
sg22
I0
sg23
I42
sg24
I0
sbssg25
S'\xd5}\x12\xd6\xe3\xcb\xe1\x15\xff8\xc0\x88\xaa\xfaa\x18'
p186
ssS'env_lib_python2_7_site-packages_sqlalchemy_orm_path_registry'
p187
(dp188
g6
(dp189
g8
S'env_lib_python2_7_site-packages_sqlalchemy_orm_path_registry.html'
p190
sg10
S'env/lib/python2.7/site-packages/sqlalchemy/orm/path_registry'
p191
sg12
g13
(g14
g15
NtRp192
(dp193
g18
I1
sg19
I0
sg20
I129
sg21
I0
sg22
I0
sg23
I46
sg24
I0
sbssg25
S'\x1fE\xfe\x0f\x93\xf4\xba=\xe4\x19\xd1\xa87\xb1\xa2\xe5'
p194
ssS'env_lib_python2_7_site-packages_jinja2_optimizer'
p195
(dp196
g6
(dp197
g8
S'env_lib_python2_7_site-packages_jinja2_optimizer.html'
p198
sg10
S'env/lib/python2.7/site-packages/jinja2/optimizer'
p199
sg12
g13
(g14
g15
NtRp200
(dp201
g18
I1
sg19
I0
sg20
I31
sg21
I0
sg22
I0
sg23
I21
sg24
I0
sbssg25
S'\x9f\x07}\x9a/\x1am$\xe2ht\x16\x9c0\x9d\x1a'
p202
ssS'env_lib_python2_7_site-packages_sqlalchemy_sql_sqltypes'
p203
(dp204
g6
(dp205
g8
S'env_lib_python2_7_site-packages_sqlalchemy_sql_sqltypes.html'
p206
sg10
S'env/lib/python2.7/site-packages/sqlalchemy/sql/sqltypes'
p207
sg12
g13
(g14
g15
NtRp208
(dp209
g18
I1
sg19
I0
sg20
I526
sg21
I0
sg22
I0
sg23
I284
sg24
I0
sbssg25
S'OK\xf8"\xd1\xec\x1a67\xa2=\xff\xaeo\\Z'
p210
ssS'env_lib_python2_7_site-packages_wtforms_fields___init__'
p211
(dp212
g6
(dp213
g8
S'env_lib_python2_7_site-packages_wtforms_fields___init__.html'
p214
sg10
S'env/lib/python2.7/site-packages/wtforms/fields/__init__'
p215
sg12
g13
(g14
g15
NtRp216
(dp217
g18
I1
sg19
I0
sg20
I3
sg21
I0
sg22
I0
sg23
I0
sg24
I0
sbssg25
S'\x12dE2A}Z\x0f\x89cm\xa4\xb6M\x15:'
p218
ssS'env_lib_python2_7_site-packages_sqlalchemy_event_api'
p219
(dp220
g6
(dp221
g8
S'env_lib_python2_7_site-packages_sqlalchemy_event_api.html'
p222
sg10
S'env/lib/python2.7/site-packages/sqlalchemy/event/api'
p223
sg12
g13
(g14
g15
NtRp224
(dp225
g18
I1
sg19
I0
sg20
I24
sg21
I0
sg22
I0
sg23
I3
sg24
I0
sbssg25
S'\xb7=\x9c\x07\xdc\x8b\xef\x9d{\xdb\xb5\xb6y\xb2\x19-'
p226
ssS'env_lib_python2_7_site-packages_sqlalchemy_orm_attributes'
p227
(dp228
g6
(dp229
g8
S'env_lib_python2_7_site-packages_sqlalchemy_orm_attributes.html'
p230
sg10
S'env/lib/python2.7/site-packages/sqlalchemy/orm/attributes'
p231
sg12
g13
(g14
g15
NtRp232
(dp233
g18
I1
sg19
I0
sg20
I620
sg21
I0
sg22
I0
sg23
I379
sg24
I0
sbssg25
S'\x88\xe3\x88\xdf\x96n\x97\x9a\x92\x824\x16\x83\xd4\xdd_'
p234
ssS'env_lib_python2_7_site-packages_werkzeug_test'
p235
(dp236
g6
(dp237
g8
S'env_lib_python2_7_site-packages_werkzeug_test.html'
p238
sg10
S'env/lib/python2.7/site-packages/werkzeug/test'
p239
sg12
g13
(g14
g15
NtRp240
(dp241
g18
I1
sg19
I0
sg20
I458
sg21
I0
sg22
I0
sg23
I355
sg24
I0
sbssg25
S'\xe0fi\x9c=\x1f\xca\xe4\x89VN@\xae$8a'
p242
ssS'env_lib_python2_7_site-packages_werkzeug_urls'
p243
(dp244
g6
(dp245
g8
S'env_lib_python2_7_site-packages_werkzeug_urls.html'
p246
sg10
S'env/lib/python2.7/site-packages/werkzeug/urls'
p247
sg12
g13
(g14
g15
NtRp248
(dp249
g18
I1
sg19
I0
sg20
I379
sg21
I0
sg22
I0
sg23
I307
sg24
I0
sbssg25
S'\x14;\x80\x10\x02\x9b1\xc5\x8c\x1a\xdb\x81_^\xa6\xf3'
p250
ssS'env_lib_python2_7_site-packages_werkzeug_formparser'
p251
(dp252
g6
(dp253
g8
S'env_lib_python2_7_site-packages_werkzeug_formparser.html'
p254
sg10
S'env/lib/python2.7/site-packages/werkzeug/formparser'
p255
sg12
g13
(g14
g15
NtRp256
(dp257
g18
I1
sg19
I0
sg20
I246
sg21
I4
sg22
I0
sg23
I197
sg24
I0
sbssg25
S'Iq\x9b(9\x12?\x86\x9c\x8b\xac\x11\xb9Ho7'
p258
ssS'env_lib_python2_7_site-packages_sqlalchemy_event___init__'
p259
(dp260
g6
(dp261
g8
S'env_lib_python2_7_site-packages_sqlalchemy_event___init__.html'
p262
sg10
S'env/lib/python2.7/site-packages/sqlalchemy/event/__init__'
p263
sg12
g13
(g14
g15
NtRp264
(dp265
g18
I1
sg19
I0
sg20
I4
sg21
I0
sg22
I0
sg23
I0
sg24
I0
sbssg25
S'\xccK\x88{<\x81\xb9\xd7\r!@\xf6Er\xf66'
p266
ssS'env_lib_python2_7_site-packages_jinja2_utils'
p267
(dp268
g6
(dp269
g8
S'env_lib_python2_7_site-packages_jinja2_utils.html'
p270
sg10
S'env/lib/python2.7/site-packages/jinja2/utils'
p271
sg12
g13
(g14
g15
NtRp272
(dp273
g18
I1
sg19
I0
sg20
I263
sg21
I0
sg22
I0
sg23
I185
sg24
I0
sbssg25
S'\x17\xe9g\x81:\x8a\x99\x91\xd9m"\x87$\x91\x08\x1a'
p274
ssS'env_lib_python2_7_site-packages_sqlalchemy_orm_events'
p275
(dp276
g6
(dp277
g8
S'env_lib_python2_7_site-packages_sqlalchemy_orm_events.html'
p278
sg10
S'env/lib/python2.7/site-packages/sqlalchemy/orm/events'
p279
sg12
g13
(g14
g15
NtRp280
(dp281
g18
I1
sg19
I0
sg20
I257
sg21
I0
sg22
I0
sg23
I100
sg24
I0
sbssg25
S'R\xfdXH\xb5\xa2I\xb5\xc1\x92\xa4\xed\x88b\xa9\x05'
p282
ssS'env_lib_python2_7_site-packages_flask_wtf__compat'
p283
(dp284
g6
(dp285
g8
S'env_lib_python2_7_site-packages_flask_wtf__compat.html'
p286
sg10
S'env/lib/python2.7/site-packages/flask_wtf/_compat'
p287
sg12
g13
(g14
g15
NtRp288
(dp289
g18
I1
sg19
I0
sg20
I10
sg21
I0
sg22
I0
sg23
I5
sg24
I0
sbssg25
S'I\xa3\xb5\x0b\x98\xe4?~/^\xdeK\x8eH\xd1S'
p290
ssS'env_lib_python2_7_site-packages_sqlalchemy_util__collections'
p291
(dp292
g6
(dp293
g8
S'env_lib_python2_7_site-packages_sqlalchemy_util__collections.html'
p294
sg10
S'env/lib/python2.7/site-packages/sqlalchemy/util/_collections'
p295
sg12
g13
(g14
g15
NtRp296
(dp297
g18
I1
sg19
I0
sg20
I569
sg21
I0
sg22
I0
sg23
I282
sg24
I0
sbssg25
S'H\x0b\xf1\xe5"\xb2ry\x82\x87\x9c\xa0\xbb \xf9\x13'
p298
ssS'env_lib_python2_7_site-packages_sqlalchemy_orm_dynamic'
p299
(dp300
g6
(dp301
g8
S'env_lib_python2_7_site-packages_sqlalchemy_orm_dynamic.html'
p302
sg10
S'env/lib/python2.7/site-packages/sqlalchemy/orm/dynamic'
p303
sg12
g13
(g14
g15
NtRp304
(dp305
g18
I1
sg19
I0
sg20
I198
sg21
I0
sg22
I0
sg23
I144
sg24
I0
sbssg25
S'\xe6\x9cB\xe50\xd7\x1e\xd0\xca\x94p8!\xeb%;'
p306
ssS'env_lib_python2_7_site-packages_sqlalchemy_sql_elements'
p307
(dp308
g6
(dp309
g8
S'env_lib_python2_7_site-packages_sqlalchemy_sql_elements.html'
p310
sg10
S'env/lib/python2.7/site-packages/sqlalchemy/sql/elements'
p311
sg12
g13
(g14
g15
NtRp312
(dp313
g18
I1
sg19
I0
sg20
I954
sg21
I0
sg22
I0
sg23
I459
sg24
I0
sbssg25
S'W4\xea\x84\xbf\xa5 Wk\x88O\x92{Kk|'
p314
ssS'env_lib_python2_7_site-packages_flask___init__'
p315
(dp316
g6
(dp317
g8
S'env_lib_python2_7_site-packages_flask___init__.html'
p318
sg10
S'env/lib/python2.7/site-packages/flask/__init__'
p319
sg12
g13
(g14
g15
NtRp320
(dp321
g18
I1
sg19
I0
sg20
I18
sg21
I0
sg22
I0
sg23
I0
sg24
I0
sbssg25
S'\xbap\xbb\x0bT{\x1b\xee\xb3R\xfde\x14\xac>O'
p322
ssS'env_lib_python2_7_site-packages_sqlalchemy_engine_result'
p323
(dp324
g6
(dp325
g8
S'env_lib_python2_7_site-packages_sqlalchemy_engine_result.html'
p326
sg10
S'env/lib/python2.7/site-packages/sqlalchemy/engine/result'
p327
sg12
g13
(g14
g15
NtRp328
(dp329
g18
I1
sg19
I0
sg20
I446
sg21
I0
sg22
I0
sg23
I279
sg24
I0
sbssg25
S'\xf8b\xaf\xb0\xfe\r\x0e?\xb1:\xc1x\x91\n\rt'
p330
ssS'env_lib_python2_7_site-packages_sqlalchemy_engine_interfaces'
p331
(dp332
g6
(dp333
g8
S'env_lib_python2_7_site-packages_sqlalchemy_engine_interfaces.html'
p334
sg10
S'env/lib/python2.7/site-packages/sqlalchemy/engine/interfaces'
p335
sg12
g13
(g14
g15
NtRp336
(dp337
g18
I1
sg19
I0
sg20
I118
sg21
I0
sg22
I0
sg23
I54
sg24
I0
sbssg25
S'h\xa8\xc9\xc7XE?\x88\xcf\x8e\xe0\xaek\x83aV'
p338
ssS'env_lib_python2_7_site-packages_flask_testing'
p339
(dp340
g6
(dp341
g8
S'env_lib_python2_7_site-packages_flask_testing.html'
p342
sg10
S'env/lib/python2.7/site-packages/flask/testing'
p343
sg12
g13
(g14
g15
NtRp344
(dp345
g18
I1
sg19
I0
sg20
I58
sg21
I0
sg22
I0
sg23
I45
sg24
I0
sbssg25
S'$\x12\xe5\xe7X\xffA/\xff\x14V\xbf\xecP\x08t'
p346
ssS'env_lib_python2_7_site-packages_sqlalchemy_orm_strategy_options'
p347
(dp348
g6
(dp349
g8
S'env_lib_python2_7_site-packages_sqlalchemy_orm_strategy_options.html'
p350
sg10
S'env/lib/python2.7/site-packages/sqlalchemy/orm/strategy_options'
p351
sg12
g13
(g14
g15
NtRp352
(dp353
g18
I1
sg19
I0
sg20
I323
sg21
I0
sg22
I0
sg23
I238
sg24
I0
sbssg25
S'\x7f7\x12\x17B3\x84\xd0K\x18a>\xf1\xf8\x84='
p354
ssS'env_lib_python2_7_site-packages_sqlalchemy_dialects___init__'
p355
(dp356
g6
(dp357
g8
S'env_lib_python2_7_site-packages_sqlalchemy_dialects___init__.html'
p358
sg10
S'env/lib/python2.7/site-packages/sqlalchemy/dialects/__init__'
p359
sg12
g13
(g14
g15
NtRp360
(dp361
g18
I1
sg19
I0
sg20
I17
sg21
I0
sg22
I0
sg23
I4
sg24
I0
sbssg25
S'w~\x1dK\x89\xfe#\xd4\x84\xa2IT\xf2\xac\xac\xf1'
p362
ssS'env_lib_python2_7_site-packages_sqlalchemy_util___init__'
p363
(dp364
g6
(dp365
g8
S'env_lib_python2_7_site-packages_sqlalchemy_util___init__.html'
p366
sg10
S'env/lib/python2.7/site-packages/sqlalchemy/util/__init__'
p367
sg12
g13
(g14
g15
NtRp368
(dp369
g18
I1
sg19
I0
sg20
I8
sg21
I0
sg22
I0
sg23
I0
sg24
I0
sbssg25
S'\x14\x8f\x1c\xf4</\x88\xa8lT\x9d\xba\r\xac\x01>'
p370
ssS'env_lib_python2_7_site-packages_sqlalchemy_orm___init__'
p371
(dp372
g6
(dp373
g8
S'env_lib_python2_7_site-packages_sqlalchemy_orm___init__.html'
p374
sg10
S'env/lib/python2.7/site-packages/sqlalchemy/orm/__init__'
p375
sg12
g13
(g14
g15
NtRp376
(dp377
g18
I1
sg19
I0
sg20
I78
sg21
I0
sg22
I0
sg23
I21
sg24
I0
sbssg25
S'\x99\x8dnxL?2^\\\xd2E\xbaKn-\x01'
p378
ssS'env_lib_python2_7_site-packages_markupsafe__compat'
p379
(dp380
g6
(dp381
g8
S'env_lib_python2_7_site-packages_markupsafe__compat.html'
p382
sg10
S'env/lib/python2.7/site-packages/markupsafe/_compat'
p383
sg12
g13
(g14
g15
NtRp384
(dp385
g18
I1
sg19
I0
sg20
I14
sg21
I0
sg22
I0
sg23
I5
sg24
I0
sbssg25
S'\x99\x16\xdbp\x85/\x12e\xfa.\xcb\xca\xb3T\x01\xdd'
p386
ssS'env_lib_python2_7_site-packages_werkzeug_wrappers'
p387
(dp388
g6
(dp389
g8
S'env_lib_python2_7_site-packages_werkzeug_wrappers.html'
p390
sg10
S'env/lib/python2.7/site-packages/werkzeug/wrappers'
p391
sg12
g13
(g14
g15
NtRp392
(dp393
g18
I1
sg19
I0
sg20
I567
sg21
I0
sg22
I0
sg23
I371
sg24
I0
sbssg25
S'\xe9]\xab\xee\xb5\x9cE\x81\xaa\x05\xe6\x17L\x8c\xe9o'
p394
ssS'env_lib_python2_7_site-packages_sqlalchemy_event_registry'
p395
(dp396
g6
(dp397
g8
S'env_lib_python2_7_site-packages_sqlalchemy_event_registry.html'
p398
sg10
S'env/lib/python2.7/site-packages/sqlalchemy/event/registry'
p399
sg12
g13
(g14
g15
NtRp400
(dp401
g18
I1
sg19
I0
sg20
I125
sg21
I0
sg22
I0
sg23
I65
sg24
I0
sbssg25
S'\x16<P\x85\xdc\x8d\xbc\xcc\xb4\x99\xc2,\x16S\xdb\xac'
p402
ssS'env_lib_python2_7_site-packages_werkzeug_local'
p403
(dp404
g6
(dp405
g8
S'env_lib_python2_7_site-packages_werkzeug_local.html'
p406
sg10
S'env/lib/python2.7/site-packages/werkzeug/local'
p407
sg12
g13
(g14
g15
NtRp408
(dp409
g18
I1
sg19
I0
sg20
I210
sg21
I0
sg22
I0
sg23
I89
sg24
I0
sbssg25
S'\xbbU\xe2\xe7\xb5\xa7\x06\xfb\xcex<j\xc3\x8e\xed\xf6'
p410
ssS'app_users___init__'
p411
(dp412
g6
(dp413
g8
S'app_users___init__.html'
p414
sg10
S'app/users/__init__'
p415
sg12
g13
(g14
g15
NtRp416
(dp417
g18
I1
sg19
I0
sg20
I0
sg21
I0
sg22
I0
sg23
I0
sg24
I0
sbssg25
S'\xe4\x90\xec\x0c2\xe0\xabF\x160\xf6\xaed\xa5\xa9\xd3'
p418
ssS'env_lib_python2_7_site-packages_sqlalchemy_orm_instrumentation'
p419
(dp420
g6
(dp421
g8
S'env_lib_python2_7_site-packages_sqlalchemy_orm_instrumentation.html'
p422
sg10
S'env/lib/python2.7/site-packages/sqlalchemy/orm/instrumentation'
p423
sg12
g13
(g14
g15
NtRp424
(dp425
g18
I1
sg19
I0
sg20
I239
sg21
I0
sg22
I0
sg23
I101
sg24
I0
sbssg25
S'[K\x07\xeb6\xb9:v>\xd0\x1f\xc2~S\x8e\xf5'
p426
ssS'env_lib_python2_7_site-packages_sqlalchemy_engine_util'
p427
(dp428
g6
(dp429
g8
S'env_lib_python2_7_site-packages_sqlalchemy_engine_util.html'
p430
sg10
S'env/lib/python2.7/site-packages/sqlalchemy/engine/util'
p431
sg12
g13
(g14
g15
NtRp432
(dp433
g18
I1
sg19
I0
sg20
I33
sg21
I0
sg22
I0
sg23
I28
sg24
I0
sbssg25
S'\x18\x99\x91\x0e\x9c\xff\x10\xec\x96\xaa\xde\x8c))q\xc7'
p434
ssS'env_lib_python2_7_site-packages_flask_wtf_i18n'
p435
(dp436
g6
(dp437
g8
S'env_lib_python2_7_site-packages_flask_wtf_i18n.html'
p438
sg10
S'env/lib/python2.7/site-packages/flask_wtf/i18n'
p439
sg12
g13
(g14
g15
NtRp440
(dp441
g18
I1
sg19
I0
sg20
I39
sg21
I0
sg22
I0
sg23
I36
sg24
I0
sbssg25
S"\xfd,\n/'\xd3eK\x1dg\xfb&w\xe9\x9b\xca"
p442
ssS'app___init__'
p443
(dp444
g6
(dp445
g8
S'app___init__.html'
p446
sg10
S'app/__init__'
p447
sg12
g13
(g14
g15
NtRp448
(dp449
g18
I1
sg19
I0
sg20
I21
sg21
I0
sg22
I0
sg23
I0
sg24
I0
sbssg25
S'\x0e,\xc3\x1a\x97P\x9e\xed\xa8$\x05\xbe\x0b3=\xf1'
p450
ssS'env_lib_python2_7_site-packages_sqlalchemy_orm_state'
p451
(dp452
g6
(dp453
g8
S'env_lib_python2_7_site-packages_sqlalchemy_orm_state.html'
p454
sg10
S'env/lib/python2.7/site-packages/sqlalchemy/orm/state'
p455
sg12
g13
(g14
g15
NtRp456
(dp457
g18
I1
sg19
I0
sg20
I255
sg21
I0
sg22
I0
sg23
I116
sg24
I0
sbssg25
S'\x97\xe8a\xf5\xa0\x17\xc5\x05\xbd-\xcc\xf6\xf5\x05fW'
p458
ssS'env_lib_python2_7_site-packages_sqlalchemy_util_queue'
p459
(dp460
g6
(dp461
g8
S'env_lib_python2_7_site-packages_sqlalchemy_util_queue.html'
p462
sg10
S'env/lib/python2.7/site-packages/sqlalchemy/util/queue'
p463
sg12
g13
(g14
g15
NtRp464
(dp465
g18
I1
sg19
I0
sg20
I88
sg21
I0
sg22
I0
sg23
I64
sg24
I0
sbssg25
S'J5\x8a\x10\xeb\xbfE?\xd9\\\xd4j\x8dw\xc0f'
p466
ssS'env_lib_python2_7_site-packages_flask_sessions'
p467
(dp468
g6
(dp469
g8
S'env_lib_python2_7_site-packages_flask_sessions.html'
p470
sg10
S'env/lib/python2.7/site-packages/flask/sessions'
p471
sg12
g13
(g14
g15
NtRp472
(dp473
g18
I1
sg19
I0
sg20
I143
sg21
I0
sg22
I0
sg23
I93
sg24
I0
sbssg25
S't\xe1\x17C\xd5\x02X\xca\x18|\x136\x81wb7'
p474
ssS'env_lib_python2_7_site-packages_wtforms_fields_simple'
p475
(dp476
g6
(dp477
g8
S'env_lib_python2_7_site-packages_wtforms_fields_simple.html'
p478
sg10
S'env/lib/python2.7/site-packages/wtforms/fields/simple'
p479
sg12
g13
(g14
g15
NtRp480
(dp481
g18
I1
sg19
I0
sg20
I14
sg21
I0
sg22
I0
sg23
I0
sg24
I0
sbssg25
S'\x8c\x14\xe9\\\xf9\xa9$\x0f\x08\xba\xc7\xf4Y\xff;e'
p482
ssS'env_lib_python2_7_site-packages_sqlalchemy_orm_evaluator'
p483
(dp484
g6
(dp485
g8
S'env_lib_python2_7_site-packages_sqlalchemy_orm_evaluator.html'
p486
sg10
S'env/lib/python2.7/site-packages/sqlalchemy/orm/evaluator'
p487
sg12
g13
(g14
g15
NtRp488
(dp489
g18
I1
sg19
I0
sg20
I81
sg21
I0
sg22
I0
sg23
I64
sg24
I0
sbssg25
S'\xe3XCK\x87\n6\x8f\xa9\xa0\xb6\xe2\x13\xc5\x8b:'
p490
ssS'env_lib_python2_7_site-packages_flask_blueprints'
p491
(dp492
g6
(dp493
g8
S'env_lib_python2_7_site-packages_flask_blueprints.html'
p494
sg10
S'env/lib/python2.7/site-packages/flask/blueprints'
p495
sg12
g13
(g14
g15
NtRp496
(dp497
g18
I1
sg19
I0
sg20
I156
sg21
I0
sg22
I0
sg23
I69
sg24
I0
sbssg25
S'\x16\x8c`\xaeM\tZ@\xba\x18%\xb6\xc1r?]'
p498
ssS'env_lib_python2_7_site-packages_sqlalchemy_dialects_sqlite_pysqlite'
p499
(dp500
g6
(dp501
g8
S'env_lib_python2_7_site-packages_sqlalchemy_dialects_sqlite_pysqlite.html'
p502
sg10
S'env/lib/python2.7/site-packages/sqlalchemy/dialects/sqlite/pysqlite'
p503
sg12
g13
(g14
g15
NtRp504
(dp505
g18
I1
sg19
I0
sg20
I67
sg21
I0
sg22
I0
sg23
I21
sg24
I0
sbssg25
S'\xd0fR\x89${W\xd49\xf0\xa6Z\xbd-\x06t'
p506
ssS'env_lib_python2_7_site-packages_flask__compat'
p507
(dp508
g6
(dp509
g8
S'env_lib_python2_7_site-packages_flask__compat.html'
p510
sg10
S'env/lib/python2.7/site-packages/flask/_compat'
p511
sg12
g13
(g14
g15
NtRp512
(dp513
g18
I1
sg19
I0
sg20
I38
sg21
I0
sg22
I0
sg23
I20
sg24
I0
sbssg25
S's\xcd\x8a\xd4\xc2\xb9\x888\x0c\x97\xf4\x02\xc7\xcf\xf3\xeb'
p514
ssS'env_lib_python2_7_site-packages_flask_wtf_recaptcha_validators'
p515
(dp516
g6
(dp517
g8
S'env_lib_python2_7_site-packages_flask_wtf_recaptcha_validators.html'
p518
sg10
S'env/lib/python2.7/site-packages/flask_wtf/recaptcha/validators'
p519
sg12
g13
(g14
g15
NtRp520
(dp521
g18
I1
sg19
I0
sg20
I45
sg21
I0
sg22
I0
sg23
I32
sg24
I0
sbssg25
S'%[\xa4b\xa8\xeb}o\xf5M0\xd8\xd3\xea\xda\xf7'
p522
ssS'env_lib_python2_7_site-packages_markupsafe___init__'
p523
(dp524
g6
(dp525
g8
S'env_lib_python2_7_site-packages_markupsafe___init__.html'
p526
sg10
S'env/lib/python2.7/site-packages/markupsafe/__init__'
p527
sg12
g13
(g14
g15
NtRp528
(dp529
g18
I1
sg19
I0
sg20
I155
sg21
I0
sg22
I0
sg23
I89
sg24
I0
sbssg25
S"\x81\x81'K\xc7\x0c\x1f\xd3\x80/\xc5'=\xfe\xea\x1f"
p530
ssS'env_lib_python2_7_site-packages_sqlalchemy_sql___init__'
p531
(dp532
g6
(dp533
g8
S'env_lib_python2_7_site-packages_sqlalchemy_sql___init__.html'
p534
sg10
S'env/lib/python2.7/site-packages/sqlalchemy/sql/__init__'
p535
sg12
g13
(g14
g15
NtRp536
(dp537
g18
I1
sg19
I0
sg20
I15
sg21
I0
sg22
I0
sg23
I0
sg24
I0
sbssg25
S'F\xeel6\xe2\x98r)b\x8c\x9c\x80\x18P\xda"'
p538
ssS'env_lib_python2_7_site-packages_sqlalchemy_event_legacy'
p539
(dp540
g6
(dp541
g8
S'env_lib_python2_7_site-packages_sqlalchemy_event_legacy.html'
p542
sg10
S'env/lib/python2.7/site-packages/sqlalchemy/event/legacy'
p543
sg12
g13
(g14
g15
NtRp544
(dp545
g18
I1
sg19
I0
sg20
I56
sg21
I0
sg22
I0
sg23
I18
sg24
I0
sbssg25
S'H\xe3?\x17\x05\xf6\x15\xb6>\xd8\x84\xc1\xe5\xda\x01R'
p546
ssS'env_lib_python2_7_site-packages_sqlalchemy_exc'
p547
(dp548
g6
(dp549
g8
S'env_lib_python2_7_site-packages_sqlalchemy_exc.html'
p550
sg10
S'env/lib/python2.7/site-packages/sqlalchemy/exc'
p551
sg12
g13
(g14
g15
NtRp552
(dp553
g18
I1
sg19
I0
sg20
I101
sg21
I0
sg22
I0
sg23
I45
sg24
I0
sbssg25
S"\x19\xb9\xa4\x03\x17\xcb-8('\xf3Sm\n\xb2\xce"
p554
ssS'env_lib_python2_7_site-packages_sqlalchemy_sql_visitors'
p555
(dp556
g6
(dp557
g8
S'env_lib_python2_7_site-packages_sqlalchemy_sql_visitors.html'
p558
sg10
S'env/lib/python2.7/site-packages/sqlalchemy/sql/visitors'
p559
sg12
g13
(g14
g15
NtRp560
(dp561
g18
I1
sg19
I0
sg20
I132
sg21
I0
sg22
I0
sg23
I35
sg24
I0
sbssg25
S'\x04\x94\x8a\x1d\x05F\\\xfdn\x19\x83l\xcb/\x15\xe1'
p562
ssS'env_lib_python2_7_site-packages_jinja2_compiler'
p563
(dp564
g6
(dp565
g8
S'env_lib_python2_7_site-packages_jinja2_compiler.html'
p566
sg10
S'env/lib/python2.7/site-packages/jinja2/compiler'
p567
sg12
g13
(g14
g15
NtRp568
(dp569
g18
I1
sg19
I0
sg20
I1030
sg21
I0
sg22
I0
sg23
I885
sg24
I0
sbssg25
S'>*1\xfe\xa9\x03n\x10\x07-\xda\xa4tH\xb7\xfc'
p570
ssS'env_lib_python2_7_site-packages_jinja2_exceptions'
p571
(dp572
g6
(dp573
g8
S'env_lib_python2_7_site-packages_jinja2_exceptions.html'
p574
sg10
S'env/lib/python2.7/site-packages/jinja2/exceptions'
p575
sg12
g13
(g14
g15
NtRp576
(dp577
g18
I1
sg19
I0
sg20
I70
sg21
I0
sg22
I0
sg23
I47
sg24
I0
sbssg25
S'\xf3z\xf9\xb0i}\xb8\xf8a\x05\xda\n?\x1c\xfb\x1d'
p578
ssS'env_lib_python2_7_site-packages_sqlalchemy_util_langhelpers'
p579
(dp580
g6
(dp581
g8
S'env_lib_python2_7_site-packages_sqlalchemy_util_langhelpers.html'
p582
sg10
S'env/lib/python2.7/site-packages/sqlalchemy/util/langhelpers'
p583
sg12
g13
(g14
g15
NtRp584
(dp585
g18
I1
sg19
I0
sg20
I629
sg21
I0
sg22
I0
sg23
I280
sg24
I0
sbssg25
S'\x97\xb4n\xe8]\x8f\xc4\xddd\x07*\xa8\xd0h\xd9\xbc'
p586
ssS'env_lib_python2_7_site-packages_sqlalchemy_orm_scoping'
p587
(dp588
g6
(dp589
g8
S'env_lib_python2_7_site-packages_sqlalchemy_orm_scoping.html'
p590
sg10
S'env/lib/python2.7/site-packages/sqlalchemy/orm/scoping'
p591
sg12
g13
(g14
g15
NtRp592
(dp593
g18
I1
sg19
I0
sg20
I63
sg21
I0
sg22
I0
sg23
I31
sg24
I0
sbssg25
S'\xb0.\xd2\x02\xf9\x83[\\B\xbb\x86wFEK\x82'
p594
ssS'env_lib_python2_7_site-packages_sqlalchemy_orm_query'
p595
(dp596
g6
(dp597
g8
S'env_lib_python2_7_site-packages_sqlalchemy_orm_query.html'
p598
sg10
S'env/lib/python2.7/site-packages/sqlalchemy/orm/query'
p599
sg12
g13
(g14
g15
NtRp600
(dp601
g18
I1
sg19
I0
sg20
I1088
sg21
I0
sg22
I0
sg23
I726
sg24
I0
sbssg25
S"\x13\x9e\x11\xe6w\xc3\x8e\xabP\xf0\xebSS\xf0'r"
p602
ssS'env_lib_python2_7_site-packages_sqlalchemy_orm_loading'
p603
(dp604
g6
(dp605
g8
S'env_lib_python2_7_site-packages_sqlalchemy_orm_loading.html'
p606
sg10
S'env/lib/python2.7/site-packages/sqlalchemy/orm/loading'
p607
sg12
g13
(g14
g15
NtRp608
(dp609
g18
I1
sg19
I0
sg20
I308
sg21
I0
sg22
I0
sg23
I191
sg24
I0
sbssg25
S'\xd9\x042\x1dh\rT\xa7\x8d\x802 \xb6\xc3P\x0f'
p610
ssS'env_lib_python2_7_site-packages_itsdangerous'
p611
(dp612
g6
(dp613
g8
S'env_lib_python2_7_site-packages_itsdangerous.html'
p614
sg10
S'env/lib/python2.7/site-packages/itsdangerous'
p615
sg12
g13
(g14
g15
NtRp616
(dp617
g18
I1
sg19
I0
sg20
I413
sg21
I0
sg22
I0
sg23
I293
sg24
I0
sbssg25
S'`M\xf3d\xd8Y\x103\x8e\xe2\xe0\x84\xa8\x93p\xd8'
p618
ssS'env_lib_python2_7_site-packages_sqlalchemy_dialects_sqlite___init__'
p619
(dp620
g6
(dp621
g8
S'env_lib_python2_7_site-packages_sqlalchemy_dialects_sqlite___init__.html'
p622
sg10
S'env/lib/python2.7/site-packages/sqlalchemy/dialects/sqlite/__init__'
p623
sg12
g13
(g14
g15
NtRp624
(dp625
g18
I1
sg19
I0
sg20
I4
sg21
I0
sg22
I0
sg23
I0
sg24
I0
sbssg25
S'%7\xe26^[\xbbO\xff\xcd\xa0\xdc\xd2\x17=\xbb'
p626
ssS'env_lib_python2_7_site-packages_sqlalchemy_orm_util'
p627
(dp628
g6
(dp629
g8
S'env_lib_python2_7_site-packages_sqlalchemy_orm_util.html'
p630
sg10
S'env/lib/python2.7/site-packages/sqlalchemy/orm/util'
p631
sg12
g13
(g14
g15
NtRp632
(dp633
g18
I1
sg19
I0
sg20
I281
sg21
I0
sg22
I0
sg23
I212
sg24
I0
sbssg25
S'\x18\xe6\xb7G\xa1\xc9\x82#\xecP\xbb\xa0 K\x81\xd8'
p634
ssS'env_lib_python2_7_site-packages_flask_signals'
p635
(dp636
g6
(dp637
g8
S'env_lib_python2_7_site-packages_flask_signals.html'
p638
sg10
S'env/lib/python2.7/site-packages/flask/signals'
p639
sg12
g13
(g14
g15
NtRp640
(dp641
g18
I1
sg19
I0
sg20
I28
sg21
I0
sg22
I0
sg23
I2
sg24
I0
sbssg25
S'\x00\xe95\xfbqr\xe7\xe9k\xed\xaaT\xc5\xe1\xa5L'
p642
ssS'env_lib_python2_7_site-packages_jinja2_tests'
p643
(dp644
g6
(dp645
g8
S'env_lib_python2_7_site-packages_jinja2_tests.html'
p646
sg10
S'env/lib/python2.7/site-packages/jinja2/tests'
p647
sg12
g13
(g14
g15
NtRp648
(dp649
g18
I1
sg19
I0
sg20
I47
sg21
I0
sg22
I0
sg23
I24
sg24
I0
sbssg25
S'\xb1[}x+R\x19\xd1\xe4\xc4\xf3\xcb"5\xe8\xfd'
p650
ssS'env_lib_python2_7_site-packages_jinja2___init__'
p651
(dp652
g6
(dp653
g8
S'env_lib_python2_7_site-packages_jinja2___init__.html'
p654
sg10
S'env/lib/python2.7/site-packages/jinja2/__init__'
p655
sg12
g13
(g14
g15
NtRp656
(dp657
g18
I1
sg19
I0
sg20
I11
sg21
I0
sg22
I0
sg23
I0
sg24
I0
sbssg25
S'\\\r\x9b(\x8d\x88\x89\xaaaX\xe8\xfc\x15~=!'
p658
ssS'env_lib_python2_7_site-packages_sqlalchemy_events'
p659
(dp660
g6
(dp661
g8
S'env_lib_python2_7_site-packages_sqlalchemy_events.html'
p662
sg10
S'env/lib/python2.7/site-packages/sqlalchemy/events'
p663
sg12
g13
(g14
g15
NtRp664
(dp665
g18
I1
sg19
I0
sg20
I94
sg21
I0
sg22
I0
sg23
I23
sg24
I0
sbssg25
S'\xc9*4\xd0D\xf5\xf7C\xecr@#Z\xbd\xe1\xec'
p666
ssS'env_lib_python2_7_site-packages_flask_wtf_recaptcha_fields'
p667
(dp668
g6
(dp669
g8
S'env_lib_python2_7_site-packages_flask_wtf_recaptcha_fields.html'
p670
sg10
S'env/lib/python2.7/site-packages/flask_wtf/recaptcha/fields'
p671
sg12
g13
(g14
g15
NtRp672
(dp673
g18
I1
sg19
I0
sg20
I10
sg21
I0
sg22
I0
sg23
I2
sg24
I0
sbssg25
S'b\xa9\xc8#Ez,\xaf\x89\x9c\x1b\x90f\xdd\x81>'
p674
ssS'env_lib_python2_7_site-packages_sqlalchemy_util_compat'
p675
(dp676
g6
(dp677
g8
S'env_lib_python2_7_site-packages_sqlalchemy_util_compat.html'
p678
sg10
S'env/lib/python2.7/site-packages/sqlalchemy/util/compat'
p679
sg12
g13
(g14
g15
NtRp680
(dp681
g18
I1
sg19
I0
sg20
I141
sg21
I0
sg22
I0
sg23
I73
sg24
I0
sbssg25
S"^k\xbe0\x19\x07\xf7J\xdb\xa6Y\x1c\xbc\xb7'\x7f"
p682
ssS'env_lib_python2_7_site-packages_werkzeug_utils'
p683
(dp684
g6
(dp685
g8
S'env_lib_python2_7_site-packages_werkzeug_utils.html'
p686
sg10
S'env/lib/python2.7/site-packages/werkzeug/utils'
p687
sg12
g13
(g14
g15
NtRp688
(dp689
g18
I1
sg19
I0
sg20
I240
sg21
I0
sg22
I0
sg23
I171
sg24
I0
sbssg25
S'M\xbfG\xa0\xa2Q@\x032\\5\xb2\x8b\xe4\xe3\x0f'
p690
ssS'env_lib_python2_7_site-packages_flask_wtf___init__'
p691
(dp692
g6
(dp693
g8
S'env_lib_python2_7_site-packages_flask_wtf___init__.html'
p694
sg10
S'env/lib/python2.7/site-packages/flask_wtf/__init__'
p695
sg12
g13
(g14
g15
NtRp696
(dp697
g18
I1
sg19
I0
sg20
I6
sg21
I0
sg22
I0
sg23
I0
sg24
I0
sbssg25
S'\xd5\xec{9\x18O\xf7gi\x7f\xdc\x8cx#\x18\x82'
p698
ssS'env_lib_python2_7_site-packages_flask_wrappers'
p699
(dp700
g6
(dp701
g8
S'env_lib_python2_7_site-packages_flask_wrappers.html'
p702
sg10
S'env/lib/python2.7/site-packages/flask/wrappers'
p703
sg12
g13
(g14
g15
NtRp704
(dp705
g18
I1
sg19
I0
sg20
I62
sg21
I0
sg22
I0
sg23
I39
sg24
I0
sbssg25
S'.\x8f\xa9+\x0f{\x07Rj\xe1\x08\x1c\x12\xbazF'
p706
ssS'env_lib_python2_7_site-packages_flask_ctx'
p707
(dp708
g6
(dp709
g8
S'env_lib_python2_7_site-packages_flask_ctx.html'
p710
sg10
S'env/lib/python2.7/site-packages/flask/ctx'
p711
sg12
g13
(g14
g15
NtRp712
(dp713
g18
I1
sg19
I0
sg20
I140
sg21
I0
sg22
I0
sg23
I103
sg24
I0
sbssg25
S'\xb7BZ\x12\x03\xd2\\\xb6\xbaR\x073w\xbamb'
p714
ssS'env_lib_python2_7_site-packages_flask_templating'
p715
(dp716
g6
(dp717
g8
S'env_lib_python2_7_site-packages_flask_templating.html'
p718
sg10
S'env/lib/python2.7/site-packages/flask/templating'
p719
sg12
g13
(g14
g15
NtRp720
(dp721
g18
I1
sg19
I0
sg20
I78
sg21
I0
sg22
I0
sg23
I60
sg24
I0
sbssg25
S'\x7f\xdd\xd9\xef\xb7\xe8\xb2&\x83\xd3\x16\xc7&\xe7\x13\xb4'
p722
ssS'env_lib_python2_7_site-packages_wtforms_widgets___init__'
p723
(dp724
g6
(dp725
g8
S'env_lib_python2_7_site-packages_wtforms_widgets___init__.html'
p726
sg10
S'env/lib/python2.7/site-packages/wtforms/widgets/__init__'
p727
sg12
g13
(g14
g15
NtRp728
(dp729
g18
I1
sg19
I0
sg20
I2
sg21
I0
sg22
I0
sg23
I0
sg24
I0
sbssg25
S'\xb7\xdd\xd5\x82\x17\xa4\xfeh?\xf5\xe8\xe5\xe6\x8blQ'
p730
ssS'env_lib_python2_7_site-packages_sqlalchemy_orm_unitofwork'
p731
(dp732
g6
(dp733
g8
S'env_lib_python2_7_site-packages_sqlalchemy_orm_unitofwork.html'
p734
sg10
S'env/lib/python2.7/site-packages/sqlalchemy/orm/unitofwork'
p735
sg12
g13
(g14
g15
NtRp736
(dp737
g18
I1
sg19
I0
sg20
I325
sg21
I0
sg22
I0
sg23
I156
sg24
I0
sbssg25
S'\xe0\xfe5PG\x94K\xcc\xc4n\x0e<\x1a\x10/\xbb'
p738
ssS'env_lib_python2_7_site-packages_sqlalchemy_orm_base'
p739
(dp740
g6
(dp741
g8
S'env_lib_python2_7_site-packages_sqlalchemy_orm_base.html'
p742
sg10
S'env/lib/python2.7/site-packages/sqlalchemy/orm/base'
p743
sg12
g13
(g14
g15
NtRp744
(dp745
g18
I1
sg19
I0
sg20
I145
sg21
I0
sg22
I0
sg23
I53
sg24
I0
sbssg25
S'\xe4X+\xef\\2(G\x1c\x8e)\xbfq\x1b,\x86'
p746
ssS'env_lib_python2_7_site-packages_sqlalchemy_orm_identity'
p747
(dp748
g6
(dp749
g8
S'env_lib_python2_7_site-packages_sqlalchemy_orm_identity.html'
p750
sg10
S'env/lib/python2.7/site-packages/sqlalchemy/orm/identity'
p751
sg12
g13
(g14
g15
NtRp752
(dp753
g18
I1
sg19
I0
sg20
I164
sg21
I0
sg22
I0
sg23
I92
sg24
I0
sbssg25
S'\xa8\xdd\x9b|\x9e\xf8\xde`\x94\xfd(M\xd6X`M'
p754
ssS'app_models'
p755
(dp756
g6
(dp757
g8
S'app_models.html'
p758
sg10
S'app/models'
p759
sg12
g13
(g14
g15
NtRp760
(dp761
g18
I1
sg19
I0
sg20
I32
sg21
I0
sg22
I0
sg23
I8
sg24
I0
sbssg25
S'\x12\x0e\xbe\x0f`\x89\xde4\x8d\xf0&f\x1f\xe3j\xbc'
p762
ssS'env_lib_python2_7_site-packages_sqlalchemy_sql_compiler'
p763
(dp764
g6
(dp765
g8
S'env_lib_python2_7_site-packages_sqlalchemy_sql_compiler.html'
p766
sg10
S'env/lib/python2.7/site-packages/sqlalchemy/sql/compiler'
p767
sg12
g13
(g14
g15
NtRp768
(dp769
g18
I1
sg19
I0
sg20
I1346
sg21
I0
sg22
I0
sg23
I745
sg24
I0
sbssg25
S'>\x88s?\x18\x9b\x98\xff\xc9\x898)1F\xd3d'
p770
ssS'env_lib_python2_7_site-packages_sqlalchemy_sql_schema'
p771
(dp772
g6
(dp773
g8
S'env_lib_python2_7_site-packages_sqlalchemy_sql_schema.html'
p774
sg10
S'env/lib/python2.7/site-packages/sqlalchemy/sql/schema'
p775
sg12
g13
(g14
g15
NtRp776
(dp777
g18
I1
sg19
I0
sg20
I1020
sg21
I0
sg22
I0
sg23
I528
sg24
I0
sbssg25
S"\x8b\x12'\xf4\xd2\xf5\xe7\xae\x0eG\x0fF\x88\xeb\x17\t"
p778
ssS'env_lib_python2_7_site-packages_sqlalchemy_ext_declarative___init__'
p779
(dp780
g6
(dp781
g8
S'env_lib_python2_7_site-packages_sqlalchemy_ext_declarative___init__.html'
p782
sg10
S'env/lib/python2.7/site-packages/sqlalchemy/ext/declarative/__init__'
p783
sg12
g13
(g14
g15
NtRp784
(dp785
g18
I1
sg19
I0
sg20
I3
sg21
I0
sg22
I0
sg23
I0
sg24
I0
sbssg25
S'\xc8~\xce~\xb9=Z`\xe73I\x9b\xdd\xc3\xbc\xdf'
p786
ssS'env_lib_python2_7_site-packages_sqlalchemy_engine_reflection'
p787
(dp788
g6
(dp789
g8
S'env_lib_python2_7_site-packages_sqlalchemy_engine_reflection.html'
p790
sg10
S'env/lib/python2.7/site-packages/sqlalchemy/engine/reflection'
p791
sg12
g13
(g14
g15
NtRp792
(dp793
g18
I1
sg19
I0
sg20
I158
sg21
I0
sg22
I0
sg23
I130
sg24
I0
sbssg25
S'\x99\xbe\xe6\xbfzU\xf3\x18\x0f\xaa8\x14\xb8\xa8\xab\x0b'
p794
ssS'env_lib_python2_7_site-packages_wtforms_ext_csrf___init__'
p795
(dp796
g6
(dp797
g8
S'env_lib_python2_7_site-packages_wtforms_ext_csrf___init__.html'
p798
sg10
S'env/lib/python2.7/site-packages/wtforms/ext/csrf/__init__'
p799
sg12
g13
(g14
g15
NtRp800
(dp801
g18
I1
sg19
I0
sg20
I1
sg21
I0
sg22
I0
sg23
I0
sg24
I0
sbssg25
S'\x00dH\xb0G\xd3\x88\xe75\x1e?\xd3W\x82\x93o'
p802
ssS'env_lib_python2_7_site-packages_werkzeug_http'
p803
(dp804
g6
(dp805
g8
S'env_lib_python2_7_site-packages_werkzeug_http.html'
p806
sg10
S'env/lib/python2.7/site-packages/werkzeug/http'
p807
sg12
g13
(g14
g15
NtRp808
(dp809
g18
I1
sg19
I0
sg20
I373
sg21
I4
sg22
I0
sg23
I315
sg24
I0
sbssg25
S'm\xf7\xe4*\xc8\xeb\xb9K\x05\xbc\x1b\x7f*\xd6U\xfc'
p810
ssS'env_lib_python2_7_site-packages_flask_ext___init__'
p811
(dp812
g6
(dp813
g8
S'env_lib_python2_7_site-packages_flask_ext___init__.html'
p814
sg10
S'env/lib/python2.7/site-packages/flask/ext/__init__'
p815
sg12
g13
(g14
g15
NtRp816
(dp817
g18
I1
sg19
I0
sg20
I7
sg21
I0
sg22
I0
sg23
I0
sg24
I0
sbssg25
S'\xc7\xd4\x92\x9b\xb0\xb4h\xf1Rs\xd6\xf8vw\xdd\x07'
p818
ssS'env_lib_python2_7_site-packages_sqlalchemy_ext___init__'
p819
(dp820
g6
(dp821
g8
S'env_lib_python2_7_site-packages_sqlalchemy_ext___init__.html'
p822
sg10
S'env/lib/python2.7/site-packages/sqlalchemy/ext/__init__'
p823
sg12
g13
(g14
g15
NtRp824
(dp825
g18
I1
sg19
I0
sg20
I0
sg21
I0
sg22
I0
sg23
I0
sg24
I0
sbssg25
S'\xa0\x8b\xa7X\xb2O\x92/\x0e\xdbD\xe1\xc7/0\t'
p826
ssS'env_lib_python2_7_site-packages_flask_wtf_recaptcha_widgets'
p827
(dp828
g6
(dp829
g8
S'env_lib_python2_7_site-packages_flask_wtf_recaptcha_widgets.html'
p830
sg10
S'env/lib/python2.7/site-packages/flask_wtf/recaptcha/widgets'
p831
sg12
g13
(g14
g15
NtRp832
(dp833
g18
I1
sg19
I0
sg20
I38
sg21
I0
sg22
I0
sg23
I22
sg24
I0
sbssg25
S'\xb0\x9d03\xb46&\xc5\x89\xd1d\x1bV\x18\x9cH'
p834
ssS'env_lib_python2_7_site-packages_sqlalchemy_engine_strategies'
p835
(dp836
g6
(dp837
g8
S'env_lib_python2_7_site-packages_sqlalchemy_engine_strategies.html'
p838
sg10
S'env/lib/python2.7/site-packages/sqlalchemy/engine/strategies'
p839
sg12
g13
(g14
g15
NtRp840
(dp841
g18
I1
sg19
I0
sg20
I129
sg21
I0
sg22
I0
sg23
I46
sg24
I0
sbssg25
S'\x0f;?+\xa2M\xa9{\xd1n\x80r\x14\x83\x0e '
p842
ssS'env_lib_python2_7_site-packages_sqlalchemy_sql_ddl'
p843
(dp844
g6
(dp845
g8
S'env_lib_python2_7_site-packages_sqlalchemy_sql_ddl.html'
p846
sg10
S'env/lib/python2.7/site-packages/sqlalchemy/sql/ddl'
p847
sg12
g13
(g14
g15
NtRp848
(dp849
g18
I1
sg19
I0
sg20
I245
sg21
I0
sg22
I0
sg23
I81
sg24
I0
sbssg25
S'\x049\xc0\xcd\xa4\xeb5\xab\xd3\x81\xd2M\xd4\xa7u\xba'
p850
ssS'env_lib_python2_7_site-packages_wtforms_ext_csrf_fields'
p851
(dp852
g6
(dp853
g8
S'env_lib_python2_7_site-packages_wtforms_ext_csrf_fields.html'
p854
sg10
S'env/lib/python2.7/site-packages/wtforms/ext/csrf/fields'
p855
sg12
g13
(g14
g15
NtRp856
(dp857
g18
I1
sg19
I0
sg20
I7
sg21
I0
sg22
I0
sg23
I2
sg24
I0
sbssg25
S'\x8e\x1c\xab\x87J\x00\x9d\xc8\x9b0\x9d\x9b\xbaM\xd1\x9a'
p858
ssS'env_lib_python2_7_site-packages_flask_exthook'
p859
(dp860
g6
(dp861
g8
S'env_lib_python2_7_site-packages_flask_exthook.html'
p862
sg10
S'env/lib/python2.7/site-packages/flask/exthook'
p863
sg12
g13
(g14
g15
NtRp864
(dp865
g18
I1
sg19
I0
sg20
I54
sg21
I0
sg22
I0
sg23
I24
sg24
I0
sbssg25
S'\x81\xa8\x93h\x123\rtT\xd2\xe8\x8ejs\x0f\x12'
p866
ssS'env_lib_python2_7_site-packages_werkzeug___init__'
p867
(dp868
g6
(dp869
g8
S'env_lib_python2_7_site-packages_werkzeug___init__.html'
p870
sg10
S'env/lib/python2.7/site-packages/werkzeug/__init__'
p871
sg12
g13
(g14
g15
NtRp872
(dp873
g18
I1
sg19
I0
sg20
I29
sg21
I0
sg22
I0
sg23
I4
sg24
I0
sbssg25
S'\xf2]\xce9\xfcC\x89\xa0\x92R\\%\x04\xfbi\x1f'
p874
ssS'app_tasks_views'
p875
(dp876
g6
(dp877
g8
S'app_tasks_views.html'
p878
sg10
S'app/tasks/views'
p879
sg12
g13
(g14
g15
NtRp880
(dp881
g18
I1
sg19
I0
sg20
I35
sg21
I0
sg22
I0
sg23
I21
sg24
I0
sbssg25
S'\xadttc\x1c\x1d\xac\xbc@\xaar\x1cj\x01\x84\x11'
p882
ssS'env_lib_python2_7_site-packages_sqlalchemy_event_base'
p883
(dp884
g6
(dp885
g8
S'env_lib_python2_7_site-packages_sqlalchemy_event_base.html'
p886
sg10
S'env/lib/python2.7/site-packages/sqlalchemy/event/base'
p887
sg12
g13
(g14
g15
NtRp888
(dp889
g18
I1
sg19
I0
sg20
I88
sg21
I0
sg22
I0
sg23
I20
sg24
I0
sbssg25
S'oc9\xb9`s\x19\x1d\r\xdf\xba\xfce@\x06\xe6'
p890
ssS'env_lib_python2_7_site-packages_jinja2_lexer'
p891
(dp892
g6
(dp893
g8
S'env_lib_python2_7_site-packages_jinja2_lexer.html'
p894
sg10
S'env/lib/python2.7/site-packages/jinja2/lexer'
p895
sg12
g13
(g14
g15
NtRp896
(dp897
g18
I1
sg19
I0
sg20
I346
sg21
I0
sg22
I0
sg23
I231
sg24
I0
sbssg25
S'\x14/\x1c\x1a\xac,:\xa3t*\ry\x89\xdfF\xa0'
p898
ssS'env_lib_python2_7_site-packages_sqlalchemy_pool'
p899
(dp900
g6
(dp901
g8
S'env_lib_python2_7_site-packages_sqlalchemy_pool.html'
p902
sg10
S'env/lib/python2.7/site-packages/sqlalchemy/pool'
p903
sg12
g13
(g14
g15
NtRp904
(dp905
g18
I1
sg19
I0
sg20
I502
sg21
I0
sg22
I0
sg23
I291
sg24
I0
sbssg25
S"\x10\x11N\x899\xf9\x96~}\xdbyRE\x88\xc1'"
p906
ssS'env_lib_python2_7_site-packages_sqlalchemy_engine_default'
p907
(dp908
g6
(dp909
g8
S'env_lib_python2_7_site-packages_sqlalchemy_engine_default.html'
p910
sg10
S'env/lib/python2.7/site-packages/sqlalchemy/engine/default'
p911
sg12
g13
(g14
g15
NtRp912
(dp913
g18
I1
sg19
I0
sg20
I481
sg21
I0
sg22
I0
sg23
I189
sg24
I0
sbssg25
S'n?\xbf"k\xd3Rt\xf4\xb2\x95\x83[@\xa8)'
p914
ssS'env_lib_python2_7_site-packages_sqlalchemy_sql_base'
p915
(dp916
g6
(dp917
g8
S'env_lib_python2_7_site-packages_sqlalchemy_sql_base.html'
p918
sg10
S'env/lib/python2.7/site-packages/sqlalchemy/sql/base'
p919
sg12
g13
(g14
g15
NtRp920
(dp921
g18
I1
sg19
I0
sg20
I265
sg21
I0
sg22
I0
sg23
I134
sg24
I0
sbssg25
S'\x15\xb7\xe1\xc4L\x8d\xa1\xef\xdc#\x89c\xc8\x14\x9c\x06'
p922
ssS'env_lib_python2_7_site-packages_sqlalchemy_sql_util'
p923
(dp924
g6
(dp925
g8
S'env_lib_python2_7_site-packages_sqlalchemy_sql_util.html'
p926
sg10
S'env/lib/python2.7/site-packages/sqlalchemy/sql/util'
p927
sg12
g13
(g14
g15
NtRp928
(dp929
g18
I1
sg19
I0
sg20
I287
sg21
I0
sg22
I0
sg23
I197
sg24
I0
sbssg25
S'\xb6\xa6\xa5F\xe8\x7f\r\xb5\xa7ce\x937\xefv\xd5'
p930
ssS'env_lib_python2_7_site-packages_wtforms_validators'
p931
(dp932
g6
(dp933
g8
S'env_lib_python2_7_site-packages_wtforms_validators.html'
p934
sg10
S'env/lib/python2.7/site-packages/wtforms/validators'
p935
sg12
g13
(g14
g15
NtRp936
(dp937
g18
I1
sg19
I0
sg20
I225
sg21
I0
sg22
I0
sg23
I146
sg24
I0
sbssg25
S'\xfc?U\r\xb45\x19\xed\x0fF\xc1t"\xd1\x03\x06'
p938
ssS'env_lib_python2_7_site-packages_sqlalchemy_types'
p939
(dp940
g6
(dp941
g8
S'env_lib_python2_7_site-packages_sqlalchemy_types.html'
p942
sg10
S'env/lib/python2.7/site-packages/sqlalchemy/types'
p943
sg12
g13
(g14
g15
NtRp944
(dp945
g18
I1
sg19
I0
sg20
I4
sg21
I0
sg22
I0
sg23
I0
sg24
I0
sbssg25
S'\xd9\xf6\x17\x97={?\x9eB\xc0\xcc\x96qu\x1a\xec'
p946
ssS'env_lib_python2_7_site-packages_wtforms_form'
p947
(dp948
g6
(dp949
g8
S'env_lib_python2_7_site-packages_wtforms_form.html'
p950
sg10
S'env/lib/python2.7/site-packages/wtforms/form'
p951
sg12
g13
(g14
g15
NtRp952
(dp953
g18
I1
sg19
I0
sg20
I122
sg21
I0
sg22
I0
sg23
I85
sg24
I0
sbssg25
S'\xe4\x17p@\xa2\xab\xae\xb9\xfe\xe8\xfaa\xe1\xcamF'
p954
ssS'env_lib_python2_7_site-packages_flask_module'
p955
(dp956
g6
(dp957
g8
S'env_lib_python2_7_site-packages_flask_module.html'
p958
sg10
S'env/lib/python2.7/site-packages/flask/module'
p959
sg12
g13
(g14
g15
NtRp960
(dp961
g18
I1
sg19
I0
sg20
I13
sg21
I0
sg22
I0
sg23
I7
sg24
I0
sbssg25
S'\xf0\xdb\x0fZ4%l\x89\x9c]\xb9\xf7v\xe7@;'
p962
ssS'env_lib_python2_7_site-packages_jinja2_filters'
p963
(dp964
g6
(dp965
g8
S'env_lib_python2_7_site-packages_jinja2_filters.html'
p966
sg10
S'env/lib/python2.7/site-packages/jinja2/filters'
p967
sg12
g13
(g14
g15
NtRp968
(dp969
g18
I1
sg19
I0
sg20
I343
sg21
I0
sg22
I0
sg23
I265
sg24
I0
sbssg25
S'\xef#\xc6\xad\x92\x96v^M\x9d\xf0\xfeR\xcal\xc5'
p970
ssS'env_lib_python2_7_site-packages_sqlalchemy_sql_type_api'
p971
(dp972
g6
(dp973
g8
S'env_lib_python2_7_site-packages_sqlalchemy_sql_type_api.html'
p974
sg10
S'env/lib/python2.7/site-packages/sqlalchemy/sql/type_api'
p975
sg12
g13
(g14
g15
NtRp976
(dp977
g18
I1
sg19
I0
sg20
I258
sg21
I0
sg22
I0
sg23
I129
sg24
I0
sbssg25
S'D\xd3\xa3\xe8\x05\xb8\x95\x8d\x80u\xf1\x96<\x0b\xbcq'
p978
ssS'env_lib_python2_7_site-packages_werkzeug_datastructures'
p979
(dp980
g6
(dp981
g8
S'env_lib_python2_7_site-packages_werkzeug_datastructures.html'
p982
sg10
S'env/lib/python2.7/site-packages/werkzeug/datastructures'
p983
sg12
g13
(g14
g15
NtRp984
(dp985
g18
I1
sg19
I0
sg20
I1281
sg21
I0
sg22
I0
sg23
I879
sg24
I0
sbssg25
S'\x05\x86\x97\xca\x12\x85\xaej+\xa8&P\x8d\xc3\xf1%'
p986
ssS'env_lib_python2_7_site-packages_sqlalchemy_ext_declarative_base'
p987
(dp988
g6
(dp989
g8
S'env_lib_python2_7_site-packages_sqlalchemy_ext_declarative_base.html'
p990
sg10
S'env/lib/python2.7/site-packages/sqlalchemy/ext/declarative/base'
p991
sg12
g13
(g14
g15
NtRp992
(dp993
g18
I1
sg19
I0
sg20
I278
sg21
I0
sg22
I0
sg23
I129
sg24
I0
sbssg25
S'\xebk\x96\x1b%\x08\x9fZ\xb0\xe4\x84\xa3\xdd\x9f\xcb7'
p994
ssS'env_lib_python2_7_site-packages_sqlalchemy_inspection'
p995
(dp996
g6
(dp997
g8
S'env_lib_python2_7_site-packages_sqlalchemy_inspection.html'
p998
sg10
S'env/lib/python2.7/site-packages/sqlalchemy/inspection'
p999
sg12
g13
(g14
g15
NtRp1000
(dp1001
g18
I1
sg19
I0
sg20
I28
sg21
I0
sg22
I0
sg23
I2
sg24
I0
sbssg25
S'\xa1\xc96$\xe8\xb3#\xe0\x83\xd5\xbd\x15b\x8a\xc1\xfb'
p1002
ssS'env_lib_python2_7_site-packages_sqlalchemy_orm_strategies'
p1003
(dp1004
g6
(dp1005
g8
S'env_lib_python2_7_site-packages_sqlalchemy_orm_strategies.html'
p1006
sg10
S'env/lib/python2.7/site-packages/sqlalchemy/orm/strategies'
p1007
sg12
g13
(g14
g15
NtRp1008
(dp1009
g18
I1
sg19
I0
sg20
I627
sg21
I0
sg22
I0
sg23
I472
sg24
I0
sbssg25
S'\x94\x1aD\xcf\x96\x80=\x0b)\xa1\xbc\xde\xe6\xe9^\x03'
p1010
ssS'env_lib_python2_7_site-packages_sqlalchemy_util_topological'
p1011
(dp1012
g6
(dp1013
g8
S'env_lib_python2_7_site-packages_sqlalchemy_util_topological.html'
p1014
sg10
S'env/lib/python2.7/site-packages/sqlalchemy/util/topological'
p1015
sg12
g13
(g14
g15
NtRp1016
(dp1017
g18
I1
sg19
I0
sg20
I46
sg21
I0
sg22
I0
sg23
I8
sg24
I0
sbssg25
S'0\xb8C\xcd\xab\x0f\x05\xccg\xf2\xe9\xaf\x04\xf5\xd6 '
p1018
ssS'env_lib_python2_7_site-packages_sqlalchemy_sql_default_comparator'
p1019
(dp1020
g6
(dp1021
g8
S'env_lib_python2_7_site-packages_sqlalchemy_sql_default_comparator.html'
p1022
sg10
S'env/lib/python2.7/site-packages/sqlalchemy/sql/default_comparator'
p1023
sg12
g13
(g14
g15
NtRp1024
(dp1025
g18
I1
sg19
I0
sg20
I93
sg21
I0
sg22
I0
sg23
I61
sg24
I0
sbssg25
S'?\x88=\xc5\xa1\x9e\xd7}zvImK\xb1gv'
p1026
ssS'env_lib_python2_7_site-packages_sqlalchemy_ext_declarative_clsregistry'
p1027
(dp1028
g6
(dp1029
g8
S'env_lib_python2_7_site-packages_sqlalchemy_ext_declarative_clsregistry.html'
p1030
sg10
S'env/lib/python2.7/site-packages/sqlalchemy/ext/declarative/clsregistry'
p1031
sg12
g13
(g14
g15
NtRp1032
(dp1033
g18
I1
sg19
I0
sg20
I179
sg21
I0
sg22
I0
sg23
I75
sg24
I0
sbssg25
S'\xfc\xbb\xf7\x11\x08n\xe4\x1fki\xf8\xcc/\x97\xf3\x91'
p1034
ssS'env_lib_python2_7_site-packages_jinja2_parser'
p1035
(dp1036
g6
(dp1037
g8
S'env_lib_python2_7_site-packages_jinja2_parser.html'
p1038
sg10
S'env/lib/python2.7/site-packages/jinja2/parser'
p1039
sg12
g13
(g14
g15
NtRp1040
(dp1041
g18
I1
sg19
I0
sg20
I646
sg21
I0
sg22
I0
sg23
I586
sg24
I0
sbssg25
S'ph\r=(e\x9eI\xef\x90\xfe\x9c\xb7\xa9^Y'
p1042
ssS'env_lib_python2_7_site-packages_sqlalchemy_engine_base'
p1043
(dp1044
g6
(dp1045
g8
S'env_lib_python2_7_site-packages_sqlalchemy_engine_base.html'
p1046
sg10
S'env/lib/python2.7/site-packages/sqlalchemy/engine/base'
p1047
sg12
g13
(g14
g15
NtRp1048
(dp1049
g18
I1
sg19
I0
sg20
I619
sg21
I0
sg22
I0
sg23
I325
sg24
I0
sbssg25
S"\xef\xbe'\xb4\xbd\x0b)\xa2\xfe\x019\x0ec\xd9`\x8b"
p1050
ssS'env_lib_python2_7_site-packages_flask_globals'
p1051
(dp1052
g6
(dp1053
g8
S'env_lib_python2_7_site-packages_flask_globals.html'
p1054
sg10
S'env/lib/python2.7/site-packages/flask/globals'
p1055
sg12
g13
(g14
g15
NtRp1056
(dp1057
g18
I1
sg19
I0
sg20
I24
sg21
I0
sg22
I0
sg23
I12
sg24
I0
sbssg25
S'\xe5\xc3BR"`\x02V\x91\xd3\xf3\xfd[\xa5;\xc3'
p1058
ssS'env_lib_python2_7_site-packages_sqlalchemy_orm_descriptor_props'
p1059
(dp1060
g6
(dp1061
g8
S'env_lib_python2_7_site-packages_sqlalchemy_orm_descriptor_props.html'
p1062
sg10
S'env/lib/python2.7/site-packages/sqlalchemy/orm/descriptor_props'
p1063
sg12
g13
(g14
g15
NtRp1064
(dp1065
g18
I1
sg19
I0
sg20
I242
sg21
I0
sg22
I0
sg23
I191
sg24
I0
sbssg25
S'Tld&\x9bc\x93\x08*.\t`Y#5\xc9'
p1066
ssS'env_lib_python2_7_site-packages_werkzeug__internal'
p1067
(dp1068
g6
(dp1069
g8
S'env_lib_python2_7_site-packages_werkzeug__internal.html'
p1070
sg10
S'env/lib/python2.7/site-packages/werkzeug/_internal'
p1071
sg12
g13
(g14
g15
NtRp1072
(dp1073
g18
I1
sg19
I0
sg20
I235
sg21
I0
sg22
I0
sg23
I185
sg24
I0
sbssg25
S'\x02V/8\xbfAu\xb92\xe0\xb2\x03*<^<'
p1074
ssS'env_lib_python2_7_site-packages_jinja2_nodes'
p1075
(dp1076
g6
(dp1077
g8
S'env_lib_python2_7_site-packages_jinja2_nodes.html'
p1078
sg10
S'env/lib/python2.7/site-packages/jinja2/nodes'
p1079
sg12
g13
(g14
g15
NtRp1080
(dp1081
g18
I1
sg19
I0
sg20
I423
sg21
I0
sg22
I0
sg23
I223
sg24
I0
sbssg25
S'\xd1\xace\xdc\xf9k$\x85\x06\x1fV\xd0\xe9D\x99S'
p1082
ssS'env_lib_python2_7_site-packages_flask_wtf_csrf'
p1083
(dp1084
g6
(dp1085
g8
S'env_lib_python2_7_site-packages_flask_wtf_csrf.html'
p1086
sg10
S'env/lib/python2.7/site-packages/flask_wtf/csrf'
p1087
sg12
g13
(g14
g15
NtRp1088
(dp1089
g18
I1
sg19
I0
sg20
I114
sg21
I0
sg22
I0
sg23
I95
sg24
I0
sbssg25
S'Z\xd5`\xd1\xc6Q\xf2Y\x97m\xc6\\\xd5\x0bq\x9a'
p1090
ssS'env_lib_python2_7_site-packages_wtforms_widgets_core'
p1091
(dp1092
g6
(dp1093
g8
S'env_lib_python2_7_site-packages_wtforms_widgets_core.html'
p1094
sg10
S'env/lib/python2.7/site-packages/wtforms/widgets/core'
p1095
sg12
g13
(g14
g15
NtRp1096
(dp1097
g18
I1
sg19
I0
sg20
I117
sg21
I0
sg22
I0
sg23
I66
sg24
I0
sbssg25
S'V\xe1\x92\xbf~\x0e\x89?NN\xb8\x17/V\xca\x07'
p1098
ssS'env_lib_python2_7_site-packages_wtforms_ext___init__'
p1099
(dp1100
g6
(dp1101
g8
S'env_lib_python2_7_site-packages_wtforms_ext___init__.html'
p1102
sg10
S'env/lib/python2.7/site-packages/wtforms/ext/__init__'
p1103
sg12
g13
(g14
g15
NtRp1104
(dp1105
g18
I1
sg19
I0
sg20
I0
sg21
I0
sg22
I0
sg23
I0
sg24
I0
sbssg25
S'\xca\xf5\x9f\x7f\x88\xdfa\x831|T\x1d\xbc}\xa5v'
p1106
ssS'env_lib_python2_7_site-packages_jinja2_loaders'
p1107
(dp1108
g6
(dp1109
g8
S'env_lib_python2_7_site-packages_jinja2_loaders.html'
p1110
sg10
S'env/lib/python2.7/site-packages/jinja2/loaders'
p1111
sg12
g13
(g14
g15
NtRp1112
(dp1113
g18
I1
sg19
I0
sg20
I221
sg21
I0
sg22
I0
sg23
I168
sg24
I0
sbssg25
S'\xd4\x7f\xdd\xb8`C~\xcb\xc1\xaa\xc5\xff\x9c\xd9\x9aI'
p1114
ssS'env_lib_python2_7_site-packages_sqlalchemy_sql_functions'
p1115
(dp1116
g6
(dp1117
g8
S'env_lib_python2_7_site-packages_sqlalchemy_sql_functions.html'
p1118
sg10
S'env/lib/python2.7/site-packages/sqlalchemy/sql/functions'
p1119
sg12
g13
(g14
g15
NtRp1120
(dp1121
g18
I1
sg19
I0
sg20
I168
sg21
I0
sg22
I0
sg23
I68
sg24
I0
sbssg25
S'\x999\xe6\xfb\xd0\xed?/N\x1c\\\xaa\xbd\xb1(\x0b'
p1122
ssS'env_lib_python2_7_site-packages_flask_config'
p1123
(dp1124
g6
(dp1125
g8
S'env_lib_python2_7_site-packages_flask_config.html'
p1126
sg10
S'env/lib/python2.7/site-packages/flask/config'
p1127
sg12
g13
(g14
g15
NtRp1128
(dp1129
g18
I1
sg19
I0
sg20
I52
sg21
I0
sg22
I0
sg23
I22
sg24
I0
sbssg25
S'\xa5\xa1a\xff\xef\xa9bZ\x11\x8d;\xd2:\xf9?F'
p1130
ssS'env_lib_python2_7_site-packages_flask_wtf_recaptcha___init__'
p1131
(dp1132
g6
(dp1133
g8
S'env_lib_python2_7_site-packages_flask_wtf_recaptcha___init__.html'
p1134
sg10
S'env/lib/python2.7/site-packages/flask_wtf/recaptcha/__init__'
p1135
sg12
g13
(g14
g15
NtRp1136
(dp1137
g18
I1
sg19
I0
sg20
I3
sg21
I0
sg22
I0
sg23
I0
sg24
I0
sbssg25
S'4\x19\xb3FA\xfcS%\x10\xd6\x1b\xfa\x01\x97\xd2\xb2'
p1138
ssS'env_lib_python2_7_site-packages_sqlalchemy_interfaces'
p1139
(dp1140
g6
(dp1141
g8
S'env_lib_python2_7_site-packages_sqlalchemy_interfaces.html'
p1142
sg10
S'env/lib/python2.7/site-packages/sqlalchemy/interfaces'
p1143
sg12
g13
(g14
g15
NtRp1144
(dp1145
g18
I1
sg19
I0
sg20
I69
sg21
I0
sg22
I0
sg23
I47
sg24
I0
sbssg25
S'G|\x8cE\x90\xeb\xf1\xbb\xde\xde\xaf\xea\x8b\xc9y\x9d'
p1146
ssS'env_lib_python2_7_site-packages_sqlalchemy_engine_threadlocal'
p1147
(dp1148
g6
(dp1149
g8
S'env_lib_python2_7_site-packages_sqlalchemy_engine_threadlocal.html'
p1150
sg10
S'env/lib/python2.7/site-packages/sqlalchemy/engine/threadlocal'
p1151
sg12
g13
(g14
g15
NtRp1152
(dp1153
g18
I1
sg19
I0
sg20
I80
sg21
I0
sg22
I0
sg23
I55
sg24
I0
sbssg25
S'\xce\x8c=\xb0a?\xf5\xa5\xd2\x80\xdf\x1cD\nYG'
p1154
ssS'env_lib_python2_7_site-packages_jinja2__compat'
p1155
(dp1156
g6
(dp1157
g8
S'env_lib_python2_7_site-packages_jinja2__compat.html'
p1158
sg10
S'env/lib/python2.7/site-packages/jinja2/_compat'
p1159
sg12
g13
(g14
g15
NtRp1160
(dp1161
g18
I1
sg19
I0
sg20
I98
sg21
I0
sg22
I0
sg23
I37
sg24
I0
sbssg25
S'\x07\x8aA\xcd\xc3\xabF7\xc0\xbbI\xd9\xd1\xbd\xff\x16'
p1162
ssS'env_lib_python2_7_site-packages_sqlalchemy_orm_dependency'
p1163
(dp1164
g6
(dp1165
g8
S'env_lib_python2_7_site-packages_sqlalchemy_orm_dependency.html'
p1166
sg10
S'env/lib/python2.7/site-packages/sqlalchemy/orm/dependency'
p1167
sg12
g13
(g14
g15
NtRp1168
(dp1169
g18
I1
sg19
I0
sg20
I477
sg21
I0
sg22
I0
sg23
I374
sg24
I0
sbssg25
S'\xb9\xe0\x0f\xbe\xb2b\x05z"\x12\xb7\xe78*\xe7\x11'
p1170
ssS'env_lib_python2_7_site-packages_sqlalchemy_engine_url'
p1171
(dp1172
g6
(dp1173
g8
S'env_lib_python2_7_site-packages_sqlalchemy_engine_url.html'
p1174
sg10
S'env/lib/python2.7/site-packages/sqlalchemy/engine/url'
p1175
sg12
g13
(g14
g15
NtRp1176
(dp1177
g18
I1
sg19
I0
sg20
I102
sg21
I0
sg22
I0
sg23
I50
sg24
I0
sbssg25
S'1\xda\xf2#\xd0\xb6\t\x9cT0\xd5]\xd8?!\xd3'
p1178
ssS'app_tasks_forms'
p1179
(dp1180
g6
(dp1181
g8
S'app_tasks_forms.html'
p1182
sg10
S'app/tasks/forms'
p1183
sg12
g13
(g14
g15
NtRp1184
(dp1185
g18
I1
sg19
I0
sg20
I10
sg21
I0
sg22
I0
sg23
I0
sg24
I0
sbssg25
S's\xe3\xe0\xc6\x1cl8\xf7\xdbN\ty@\x02u$'
p1186
ssS'env_lib_python2_7_site-packages_sqlalchemy_ext_declarative_api'
p1187
(dp1188
g6
(dp1189
g8
S'env_lib_python2_7_site-packages_sqlalchemy_ext_declarative_api.html'
p1190
sg10
S'env/lib/python2.7/site-packages/sqlalchemy/ext/declarative/api'
p1191
sg12
g13
(g14
g15
NtRp1192
(dp1193
g18
I1
sg19
I0
sg20
I118
sg21
I0
sg22
I0
sg23
I70
sg24
I0
sbssg25
S'\xddka\x96\xeb\xec;\xaa\x86]e/\xe5\xbb\xde\xe9'
p1194
ssS'app_users_views'
p1195
(dp1196
g6
(dp1197
g8
S'app_users_views.html'
p1198
sg10
S'app/users/views'
p1199
sg12
g13
(g14
g15
NtRp1200
(dp1201
g18
I1
sg19
I0
sg20
I37
sg21
I0
sg22
I0
sg23
I27
sg24
I0
sbssg25
S'h\x08\x05\xa2\xa5[\x82v\x01]:idf\x14\xec'
p1202
ssS'env_lib_python2_7_site-packages_flask_sqlalchemy__compat'
p1203
(dp1204
g6
(dp1205
g8
S'env_lib_python2_7_site-packages_flask_sqlalchemy__compat.html'
p1206
sg10
S'env/lib/python2.7/site-packages/flask_sqlalchemy/_compat'
p1207
sg12
g13
(g14
g15
NtRp1208
(dp1209
g18
I1
sg19
I0
sg20
I16
sg21
I0
sg22
I0
sg23
I6
sg24
I0
sbssg25
S'\xa5\xa8y\x10{\xe5\xfcm\x0f\xc6\xd4\x1a\xf0\x90Jh'
p1210
ssS'env_lib_python2_7_site-packages_wtforms___init__'
p1211
(dp1212
g6
(dp1213
g8
S'env_lib_python2_7_site-packages_wtforms___init__.html'
p1214
sg10
S'env/lib/python2.7/site-packages/wtforms/__init__'
p1215
sg12
g13
(g14
g15
NtRp1216
(dp1217
g18
I1
sg19
I0
sg20
I5
sg21
I0
sg22
I0
sg23
I0
sg24
I0
sbssg25
S'\x96\xfa\xa5*\x1e<\xfb\xf9\x9a\xb8\xe2\xb8[\xcb\x13\x93'
p1218
ssS'env_lib_python2_7_site-packages_flask_wtf_form'
p1219
(dp1220
g6
(dp1221
g8
S'env_lib_python2_7_site-packages_flask_wtf_form.html'
p1222
sg10
S'env/lib/python2.7/site-packages/flask_wtf/form'
p1223
sg12
g13
(g14
g15
NtRp1224
(dp1225
g18
I1
sg19
I0
sg20
I77
sg21
I0
sg22
I0
sg23
I50
sg24
I0
sbssg25
S'\xe2\xb9\x13\x85\xc4A\x8e\xe9\x98)\x0b5\x8b\x83m\xb3'
p1226
ssS'env_lib_python2_7_site-packages_sqlalchemy_orm_persistence'
p1227
(dp1228
g6
(dp1229
g8
S'env_lib_python2_7_site-packages_sqlalchemy_orm_persistence.html'
p1230
sg10
S'env/lib/python2.7/site-packages/sqlalchemy/orm/persistence'
p1231
sg12
g13
(g14
g15
NtRp1232
(dp1233
g18
I1
sg19
I0
sg20
I461
sg21
I0
sg22
I0
sg23
I295
sg24
I0
sbssg25
S'\xe1&\x93\xb5\xe2\xa9\xfc\xb9p">\x82K5\x86/'
p1234
ssS'env_lib_python2_7_site-packages_sqlalchemy_dialects_sqlite_base'
p1235
(dp1236
g6
(dp1237
g8
S'env_lib_python2_7_site-packages_sqlalchemy_dialects_sqlite_base.html'
p1238
sg10
S'env/lib/python2.7/site-packages/sqlalchemy/dialects/sqlite/base'
p1239
sg12
g13
(g14
g15
NtRp1240
(dp1241
g18
I1
sg19
I0
sg20
I423
sg21
I0
sg22
I0
sg23
I263
sg24
I0
sbssg25
S'\x8b\x99U\xedT"\x80\xbdo\x12c|\xb1\xbb\xbd\x1f'
p1242
ssS'env_lib_python2_7_site-packages_sqlalchemy_orm_deprecated_interfaces'
p1243
(dp1244
g6
(dp1245
g8
S'env_lib_python2_7_site-packages_sqlalchemy_orm_deprecated_interfaces.html'
p1246
sg10
S'env/lib/python2.7/site-packages/sqlalchemy/orm/deprecated_interfaces'
p1247
sg12
g13
(g14
g15
NtRp1248
(dp1249
g18
I1
sg19
I0
sg20
I91
sg21
I0
sg22
I0
sg23
I50
sg24
I0
sbssg25
S'{\xbc\xb6\x08\xa7p\xc4C\x12y\x1evR\x11\xba\x83'
p1250
ssS'env_lib_python2_7_site-packages_sqlalchemy_sql_selectable'
p1251
(dp1252
g6
(dp1253
g8
S'env_lib_python2_7_site-packages_sqlalchemy_sql_selectable.html'
p1254
sg10
S'env/lib/python2.7/site-packages/sqlalchemy/sql/selectable'
p1255
sg12
g13
(g14
g15
NtRp1256
(dp1257
g18
I1
sg19
I0
sg20
I885
sg21
I0
sg22
I0
sg23
I502
sg24
I0
sbssg25
S'\xccU\x8b-!\xa8\xf3\x96\xe1O^\xb5N\xb3\xdb\xa8'
p1258
ssS'env_lib_python2_7_site-packages_sqlalchemy_sql_expression'
p1259
(dp1260
g6
(dp1261
g8
S'env_lib_python2_7_site-packages_sqlalchemy_sql_expression.html'
p1262
sg10
S'env/lib/python2.7/site-packages/sqlalchemy/sql/expression'
p1263
sg12
g13
(g14
g15
NtRp1264
(dp1265
g18
I1
sg19
I0
sg20
I67
sg21
I0
sg22
I0
sg23
I0
sg24
I0
sbssg25
S't,T\xc5\xadqb6\xe8\xfb\xc6t\xea\x98\x90\xe6'
p1266
ssS'env_lib_python2_7_site-packages_wtforms_fields_core'
p1267
(dp1268
g6
(dp1269
g8
S'env_lib_python2_7_site-packages_wtforms_fields_core.html'
p1270
sg10
S'env/lib/python2.7/site-packages/wtforms/fields/core'
p1271
sg12
g13
(g14
g15
NtRp1272
(dp1273
g18
I1
sg19
I0
sg20
I484
sg21
I0
sg22
I0
sg23
I340
sg24
I0
sbssg25
S'\xb8\xb7\xe8\xfd\xbe\xd4\xa4\x9cn\x10\xa6\xda\x16\x1e\t\x1d'
p1274
ssS'env_lib_python2_7_site-packages_jinja2_visitor'
p1275
(dp1276
g6
(dp1277
g8
S'env_lib_python2_7_site-packages_jinja2_visitor.html'
p1278
sg10
S'env/lib/python2.7/site-packages/jinja2/visitor'
p1279
sg12
g13
(g14
g15
NtRp1280
(dp1281
g18
I1
sg19
I0
sg20
I40
sg21
I0
sg22
I0
sg23
I31
sg24
I0
sbssg25
S'\xe6\xab\xca \xee.^\x1c\xd1D\xf8\xfd\xf2\xb7\x0e0'
p1282
ssS'env_lib_python2_7_site-packages_sqlalchemy_orm_interfaces'
p1283
(dp1284
g6
(dp1285
g8
S'env_lib_python2_7_site-packages_sqlalchemy_orm_interfaces.html'
p1286
sg10
S'env/lib/python2.7/site-packages/sqlalchemy/orm/interfaces'
p1287
sg12
g13
(g14
g15
NtRp1288
(dp1289
g18
I1
sg19
I0
sg20
I149
sg21
I0
sg22
I0
sg23
I35
sg24
I0
sbssg25
S'\xf3\x1cx}\xf1gzyf\x8f\xe1k4\xbbIN'
p1290
ssS'env_lib_python2_7_site-packages_sqlalchemy_util_deprecations'
p1291
(dp1292
g6
(dp1293
g8
S'env_lib_python2_7_site-packages_sqlalchemy_util_deprecations.html'
p1294
sg10
S'env/lib/python2.7/site-packages/sqlalchemy/util/deprecations'
p1295
sg12
g13
(g14
g15
NtRp1296
(dp1297
g18
I1
sg19
I0
sg20
I66
sg21
I0
sg22
I0
sg23
I7
sg24
I0
sbssg25
S'_\x8f\x00\x9d*\x1f\xdc\x19\xe3z1\xb8\xeb#\xb8\x0c'
p1298
ssS'test'
p1299
(dp1300
g6
(dp1301
g8
S'test.html'
p1302
sg10
g1299
sg12
g13
(g14
g15
NtRp1303
(dp1304
g18
I1
sg19
I0
sg20
I24
sg21
I0
sg22
I0
sg23
I4
sg24
I0
sbssg25
S'\x80\x91`\x81\x14\xd9]\xc7\xa1\xfe\x01\x84\xbb\x11e('
p1305
ssS'config'
p1306
(dp1307
g6
(dp1308
g8
S'config.html'
p1309
sg10
g1306
sg12
g13
(g14
g15
NtRp1310
(dp1311
g18
I1
sg19
I0
sg20
I7
sg21
I0
sg22
I0
sg23
I0
sg24
I0
sbssg25
S'\x9b\x9b\xea\x8eZ\x9d+J7\xeb\xb1\xeb\xf0\x1c\xc5.'
p1312
ssS'env_lib_python2_7_site-packages_sqlalchemy_sql_dml'
p1313
(dp1314
g6
(dp1315
g8
S'env_lib_python2_7_site-packages_sqlalchemy_sql_dml.html'
p1316
sg10
S'env/lib/python2.7/site-packages/sqlalchemy/sql/dml'
p1317
sg12
g13
(g14
g15
NtRp1318
(dp1319
g18
I1
sg19
I0
sg20
I153
sg21
I0
sg22
I0
sg23
I91
sg24
I0
sbssg25
S'i\x0ch@\x0e\x1a@\x96\x84\xc7wO\x8cc\xa8\xce'
p1320
ssS'env_lib_python2_7_site-packages_sqlalchemy_orm_mapper'
p1321
(dp1322
g6
(dp1323
g8
S'env_lib_python2_7_site-packages_sqlalchemy_orm_mapper.html'
p1324
sg10
S'env/lib/python2.7/site-packages/sqlalchemy/orm/mapper'
p1325
sg12
g13
(g14
g15
NtRp1326
(dp1327
g18
I1
sg19
I0
sg20
I891
sg21
I0
sg22
I0
sg23
I429
sg24
I0
sbssg25
S';\xd8\x03\x18\x7f\xc0\r.\x84\xf5X\xb7G\xc8k\x17'
p1328
ssS'env_lib_python2_7_site-packages_sqlalchemy_event_attr'
p1329
(dp1330
g6
(dp1331
g8
S'env_lib_python2_7_site-packages_sqlalchemy_event_attr.html'
p1332
sg10
S'env/lib/python2.7/site-packages/sqlalchemy/event/attr'
p1333
sg12
g13
(g14
g15
NtRp1334
(dp1335
g18
I1
sg19
I0
sg20
I215
sg21
I0
sg22
I0
sg23
I68
sg24
I0
sbssg25
S'B\xec\xcdO\xd6\xcfe\x1fJ\xe7\xb4\xc9#<\xe6I'
p1336
ssS'env_lib_python2_7_site-packages_flask_helpers'
p1337
(dp1338
g6
(dp1339
g8
S'env_lib_python2_7_site-packages_flask_helpers.html'
p1340
sg10
S'env/lib/python2.7/site-packages/flask/helpers'
p1341
sg12
g13
(g14
g15
NtRp1342
(dp1343
g18
I1
sg19
I0
sg20
I277
sg21
I0
sg22
I0
sg23
I188
sg24
I0
sbssg25
S'u\xc0[Z\xa8$\x03\x13\x10C\xf2@n\xd9f\x0f'
p1344
ssS'app_config'
p1345
(dp1346
g6
(dp1347
g8
S'app_config.html'
p1348
sg10
S'app/config'
p1349
sg12
g13
(g14
g15
NtRp1350
(dp1351
g18
I1
sg19
I0
sg20
I7
sg21
I0
sg22
I0
sg23
I0
sg24
I0
sbssg25
S'\x9b\x9b\xea\x8eZ\x9d+J7\xeb\xb1\xeb\xf0\x1c\xc5.'
p1352
ssS'env_lib_python2_7_site-packages_werkzeug__compat'
p1353
(dp1354
g6
(dp1355
g8
S'env_lib_python2_7_site-packages_werkzeug__compat.html'
p1356
sg10
S'env/lib/python2.7/site-packages/werkzeug/_compat'
p1357
sg12
g13
(g14
g15
NtRp1358
(dp1359
g18
I1
sg19
I0
sg20
I146
sg21
I0
sg22
I0
sg23
I91
sg24
I0
sbssg25
S'N\xe2\xe2\xf4\xeav(IW\x97\x024V5\x92\xce'
p1360
ssS'env_lib_python2_7_site-packages_sqlalchemy_log'
p1361
(dp1362
g6
(dp1363
g8
S'env_lib_python2_7_site-packages_sqlalchemy_log.html'
p1364
sg10
S'env/lib/python2.7/site-packages/sqlalchemy/log'
p1365
sg12
g13
(g14
g15
NtRp1366
(dp1367
g18
I1
sg19
I0
sg20
I79
sg21
I0
sg22
I0
sg23
I33
sg24
I0
sbssg25
S']\xe5\xfb\xb2\x1d\xf7w\x90\x0c\x8fz\t\xeda\xeeX'
p1368
ssS'env_lib_python2_7_site-packages_flask_sqlalchemy___init__'
p1369
(dp1370
g6
(dp1371
g8
S'env_lib_python2_7_site-packages_flask_sqlalchemy___init__.html'
p1372
sg10
S'env/lib/python2.7/site-packages/flask_sqlalchemy/__init__'
p1373
sg12
g13
(g14
g15
NtRp1374
(dp1375
g18
I1
sg19
I0
sg20
I431
sg21
I0
sg22
I0
sg23
I130
sg24
I0
sbssg25
S"\xe2\x1d\x0cX\xb9hUWG\xfd'\xc5<q\xb7I"
p1376
ssS'env_lib_python2_7_site-packages_sqlalchemy_orm_collections'
p1377
(dp1378
g6
(dp1379
g8
S'env_lib_python2_7_site-packages_sqlalchemy_orm_collections.html'
p1380
sg10
S'env/lib/python2.7/site-packages/sqlalchemy/orm/collections'
p1381
sg12
g13
(g14
g15
NtRp1382
(dp1383
g18
I1
sg19
I0
sg20
I689
sg21
I0
sg22
I0
sg23
I390
sg24
I0
sbssg25
S'gd\xbb\x86#\xc8<\x1c\x8f\xc3{\xfejAp,'
p1384
ssS'env_lib_python2_7_site-packages_sqlalchemy_sql_operators'
p1385
(dp1386
g6
(dp1387
g8
S'env_lib_python2_7_site-packages_sqlalchemy_sql_operators.html'
p1388
sg10
S'env/lib/python2.7/site-packages/sqlalchemy/sql/operators'
p1389
sg12
g13
(g14
g15
NtRp1390
(dp1391
g18
I1
sg19
I0
sg20
I197
sg21
I0
sg22
I0
sg23
I89
sg24
I0
sbssg25
S'p~\x955jPU\xa1\x82\xb9rh\x94\xdb?\xe5'
p1392
ssS'app_tasks___init__'
p1393
(dp1394
g6
(dp1395
g8
S'app_tasks___init__.html'
p1396
sg10
S'app/tasks/__init__'
p1397
sg12
g13
(g14
g15
NtRp1398
(dp1399
g18
I1
sg19
I0
sg20
I0
sg21
I0
sg22
I0
sg23
I0
sg24
I0
sbssg25
S'\xe4\x90\xec\x0c2\xe0\xabF\x160\xf6\xaed\xa5\xa9\xd3'
p1400
ssS'env_lib_python2_7_site-packages_sqlalchemy_orm_exc'
p1401
(dp1402
g6
(dp1403
g8
S'env_lib_python2_7_site-packages_sqlalchemy_orm_exc.html'
p1404
sg10
S'env/lib/python2.7/site-packages/sqlalchemy/orm/exc'
p1405
sg12
g13
(g14
g15
NtRp1406
(dp1407
g18
I1
sg19
I0
sg20
I60
sg21
I0
sg22
I0
sg23
I35
sg24
I0
sbssg25
S'\x89\xae\xd5#\x8a\x96\x1e\x90AW\x0ch\x8e\x9f\x017'
p1408
ssS'env_lib_python2_7_site-packages_sqlalchemy___init__'
p1409
(dp1410
g6
(dp1411
g8
S'env_lib_python2_7_site-packages_sqlalchemy___init__.html'
p1412
sg10
S'env/lib/python2.7/site-packages/sqlalchemy/__init__'
p1413
sg12
g13
(g14
g15
NtRp1414
(dp1415
g18
I1
sg19
I0
sg20
I13
sg21
I0
sg22
I0
sg23
I0
sg24
I0
sbssg25
S'C\x89\xa3\n\xf8K\xd7\xe5H.q\xca`\xc7\x93O'
p1416
ssS'env_lib_python2_7_site-packages_jinja2_defaults'
p1417
(dp1418
g6
(dp1419
g8
S'env_lib_python2_7_site-packages_jinja2_defaults.html'
p1420
sg10
S'env/lib/python2.7/site-packages/jinja2/defaults'
p1421
sg12
g13
(g14
g15
NtRp1422
(dp1423
g18
I1
sg19
I0
sg20
I19
sg21
I0
sg22
I0
sg23
I0
sg24
I0
sbssg25
S'\xe2s1\x07\x11\xcc\xb8t@\xa5n<\x98\x97"j'
p1424
ssS'env_lib_python2_7_site-packages_sqlalchemy_orm_relationships'
p1425
(dp1426
g6
(dp1427
g8
S'env_lib_python2_7_site-packages_sqlalchemy_orm_relationships.html'
p1428
sg10
S'env/lib/python2.7/site-packages/sqlalchemy/orm/relationships'
p1429
sg12
g13
(g14
g15
NtRp1430
(dp1431
g18
I1
sg19
I0
sg20
I784
sg21
I0
sg22
I0
sg23
I368
sg24
I0
sbssg25
S'\x8e\x98\x8f\xb9bm\x8f\xe6[:\x13\xdd\xec [\xb9'
p1432
ssS'env_lib_python2_7_site-packages_werkzeug_wsgi'
p1433
(dp1434
g6
(dp1435
g8
S'env_lib_python2_7_site-packages_werkzeug_wsgi.html'
p1436
sg10
S'env/lib/python2.7/site-packages/werkzeug/wsgi'
p1437
sg12
g13
(g14
g15
NtRp1438
(dp1439
g18
I1
sg19
I0
sg20
I449
sg21
I0
sg22
I0
sg23
I381
sg24
I0
sbssg25
S'q\xbd\xc5\xe5\x15\xa1\xb4\xaf\x02::z\x88D\xa4\xdf'
p1440
sssS'version'
p1441
S'3.7.1'
p1442
sS'settings'
p1443
S'\x98\xa8x\xfe"r\xb5K\x98\xb1N\\\x99\x9e\xf3\xe5'
p1444
sS'format'
p1445
I1
s.